文件：USER_PROGRAM.c 编译器版本 HGASM 0202 页次1


   1  0000              ; Generated by holtek-gcc v3.19, Wed Jan 27 13:56:23 2021
   2  0000              ; 
   3  0000              ; Configuration:
   4  0000              ;       without long instruction
   5  0000              ;       Single ROM, Multi-RAM
   6  0000              ;       bits_per_rom_unit:16
   7  0000              ;       with mp1
   8  0000              ;       with tbhp, address(0x9)
   9  0000              ;          Use tabrd-const
  10  0000              ;       
  11  0000              ;       
  12  0000              ;       
  13  0000              ; use 'tabrdc' instead of 'tabrd'
  14  0000              ;       
  15  0000              
  16  0000              #pragma translator "holtek-gcc 4.6.4" "3.19" "build 20130711"
  17  0000              ; Rebuild 718
  18  0000              
  19  0000              ir equ [2]
  20  0000              mp equ [3]
  21  0000              sbp equ [1]
  22  0000              acc equ [5]
  23  0000              bp equ [4]
  24  0000              tblp equ [7]
  25  0000              tbhp equ [9]
  26  0000              status equ [10]
  27  0000              c equ [10].0
  28  0000              ac equ [10].1
  29  0000              z equ [10].2
  30  0000              ov equ [10].3
  31  0000              intc equ [11]
  32  0000              
  33  0000              extern ra:byte
  34  0000              extern rb:byte
  35  0000              extern rc:byte
  36  0000              extern rd:byte
  37  0000              extern re:byte
  38  0000              extern rf:byte
  39  0000              extern rg:byte
  40  0000              extern rh:byte
  41  0000              extern _Crom2Prom:near
  42  0000              extern _Crom2PromNext:near
  43  0000              
  44  0000              RAMBANK 0 @HCCINIT, @HCCINIT0
  45  0000              
  46  0000              RAMBANK 0 @BITDATASEC, @BITDATASEC1
  47  0000              @HCCINIT	.section 'data'
  48  0000              @HCCINIT0	.section 'data'
  49  0000              @BITDATASEC	 .section 'data'
  50  0000              @BITDATASEC1	 .section 'data'
  51  0000              
  52  0000              #pragma debug scope 1 1
  53  0000              	extern __DELAY3:near
  54  0000              	extern __DELAYX3:near
  55  0000              	extern __DELAYX6:near
  56  0000              	extern __DELAYY5:near
  57  0000              	extern __DELAYY3:near
  58  0000              	extern _builtin_holtek_delay_2:byte
  59  0000              ___pdc equ [54]
文件：USER_PROGRAM.ASM 编译器版本 HGASM 0202 页次2

  60  0000              ___pdpu equ [55]
  61  0000              ___pac equ [21]
  62  0000              ___papu equ [22]
  63  0000              ___pbc equ [33]
  64  0000              ___pbpu equ [34]
  65  0000              #pragma debug scope 2 1

 407  0000              #line 407 "E:\jim\project\A2021\RF392\copy from pc\RF392A003_V01\USER_PROGRAM\USER_PROGRAM.c"
 407  0000              _InitLed .section 'code'
 407  0000              _InitLed proc
 438  0000              #line 438 "E:\jim\project\A2021\RF392\copy from pc\RF392A003_V01\USER_PROGRAM\USER_PROGRAM.c"
 438  0000  32B6        	set [54].5
 439  0001              #line 439 "E:\jim\project\A2021\RF392\copy from pc\RF392A003_V01\USER_PROGRAM\USER_PROGRAM.c"
 439  0001  32B7        	set [55].5
 441  0002              #line 441 "E:\jim\project\A2021\RF392\copy from pc\RF392A003_V01\USER_PROGRAM\USER_PROGRAM.c"
 441  0002  3195        	set [21].3
 442  0003              #line 442 "E:\jim\project\A2021\RF392\copy from pc\RF392A003_V01\USER_PROGRAM\USER_PROGRAM.c"
 442  0003  3196        	set [22].3
 444  0004              #line 444 "E:\jim\project\A2021\RF392\copy from pc\RF392A003_V01\USER_PROGRAM\USER_PROGRAM.c"
 444  0004  3215        	set [21].4
 445  0005              #line 445 "E:\jim\project\A2021\RF392\copy from pc\RF392A003_V01\USER_PROGRAM\USER_PROGRAM.c"
 445  0005  3216        	set [22].4
 447  0006              #line 447 "E:\jim\project\A2021\RF392\copy from pc\RF392A003_V01\USER_PROGRAM\USER_PROGRAM.c"
 447  0006  3395        	set [21].7
 448  0007              #line 448 "E:\jim\project\A2021\RF392\copy from pc\RF392A003_V01\USER_PROGRAM\USER_PROGRAM.c"
 448  0007  3396        	set [22].7
 453  0008              #line 453 "E:\jim\project\A2021\RF392\copy from pc\RF392A003_V01\USER_PROGRAM\USER_PROGRAM.c"
 453  0008  30B6        	set [54].1
 454  0009              #line 454 "E:\jim\project\A2021\RF392\copy from pc\RF392A003_V01\USER_PROGRAM\USER_PROGRAM.c"
 454  0009  30B7        	set [55].1
 456  000A              #line 456 "E:\jim\project\A2021\RF392\copy from pc\RF392A003_V01\USER_PROGRAM\USER_PROGRAM.c"
 456  000A  3115        	set [21].2
 457  000B              #line 457 "E:\jim\project\A2021\RF392\copy from pc\RF392A003_V01\USER_PROGRAM\USER_PROGRAM.c"
 457  000B  3116        	set [22].2
 459  000C              #line 459 "E:\jim\project\A2021\RF392\copy from pc\RF392A003_V01\USER_PROGRAM\USER_PROGRAM.c"
 459  000C  3015        	set [21].0
 460  000D              #line 460 "E:\jim\project\A2021\RF392\copy from pc\RF392A003_V01\USER_PROGRAM\USER_PROGRAM.c"
 460  000D  3016        	set [22].0
 462  000E              #line 462 "E:\jim\project\A2021\RF392\copy from pc\RF392A003_V01\USER_PROGRAM\USER_PROGRAM.c"
 462  000E  33A1        	set [33].7
 463  000F              #line 463 "E:\jim\project\A2021\RF392\copy from pc\RF392A003_V01\USER_PROGRAM\USER_PROGRAM.c"
 463  000F  33A2        	set [34].7
 463  0010  0003        	ret
 463  0011              _InitLed endp
 463  0011              #line 463 "E:\jim\project\A2021\RF392\copy from pc\RF392A003_V01\USER_PROGRAM\USER_PROGRAM.c"
 463  0011              #pragma debug scope 1 1
 463  0011              ___mfi1 equ [29]
 463  0011              public _INTERRUPTTIMER0
 463  0011              #pragma debug scope 3 1
 309  0011              #line 309 "E:\jim\project\A2021\RF392\copy from pc\RF392A003_V01\USER_PROGRAM\USER_PROGRAM.c"
 309  0000              @INTERRUPTTIMER0_code .section at 32 'code'
 309  0000  0080     E  	mov r1,a
 309  0001  070A        	mov a,status
 309  0002  0080     E  	mov r2,a
 309  0003  2800     R  	jmp _INTERRUPTTIMER0
 309  0004              #pragma debug scope 1 1
 309  0004              @dummy32 endp
 309  0004              #pragma debug scope 4 1
 309  0000              _INTERRUPTTIMER0 .section 'code'
 309  0000              _INTERRUPTTIMER0 proc
文件：USER_PROGRAM.c 编译器版本 HGASM 0202 页次3

 310  0000              #line 310 "E:\jim\project\A2021\RF392\copy from pc\RF392A003_V01\USER_PROGRAM\USER_PROGRAM.c"
 310  0000  3800     R  	snz _userflag1[0].0
 310  0001  2800     R  	jmp _L3
 312  0002              #line 312 "E:\jim\project\A2021\RF392\copy from pc\RF392A003_V01\USER_PROGRAM\USER_PROGRAM.c"
 312  0002  1480     R  	inc _keypresstimer[0]
 312  0003  3D0A        	sz z
 312  0004  1480     R  	inc _keypresstimer[1]
 312  0005              _L3:
 314  0005              #line 314 "E:\jim\project\A2021\RF392\copy from pc\RF392A003_V01\USER_PROGRAM\USER_PROGRAM.c"
 314  0005  3800     R  	snz _userflag1[0].1
 314  0006  2800     R  	jmp _L4
 316  0007              #line 316 "E:\jim\project\A2021\RF392\copy from pc\RF392A003_V01\USER_PROGRAM\USER_PROGRAM.c"
 316  0007  1480     R  	inc _keyledtimer[0]
 316  0008  3D0A        	sz z
 316  0009  1480     R  	inc _keyledtimer[1]
 316  000A              _L4:
 318  000A              #line 318 "E:\jim\project\A2021\RF392\copy from pc\RF392A003_V01\USER_PROGRAM\USER_PROGRAM.c"
 318  000A  3800     R  	snz _userflag1[0].3
 318  000B  2800     R  	jmp _L5
 320  000C              #line 320 "E:\jim\project\A2021\RF392\copy from pc\RF392A003_V01\USER_PROGRAM\USER_PROGRAM.c"
 320  000C  1480     R  	inc _keypairtimer[0]
 320  000D  3D0A        	sz z
 320  000E  1480     R  	inc _keypairtimer[1]
 320  000F              _L5:
 322  000F              #line 322 "E:\jim\project\A2021\RF392\copy from pc\RF392A003_V01\USER_PROGRAM\USER_PROGRAM.c"
 322  000F  3800     R  	snz _userflag1[0].2
 322  0010  2800     R  	jmp _L7
 324  0011              #line 324 "E:\jim\project\A2021\RF392\copy from pc\RF392A003_V01\USER_PROGRAM\USER_PROGRAM.c"
 324  0011  1480     R  	inc _krlsrftxtimer[0]
 326  0012              #line 326 "E:\jim\project\A2021\RF392\copy from pc\RF392A003_V01\USER_PROGRAM\USER_PROGRAM.c"
 326  0012  1F00     E  	clr _builtin_holtek_udivmodqi4_2[3]
 326  0013  0700     R  	mov a,_krlsrftxtimer[0]
 326  0014  0080     E  	mov _builtin_holtek_udivmodqi4_2[0],a
 326  0015  0F0A        	mov a,10
 326  0016  0080     E  	mov _builtin_holtek_udivmodqi4_2[1],a
 326  0017  2000     E  	call _builtin_holtek_udivmodqi4
 326  0018  0700     E  	mov a,_builtin_holtek_udivmodqi4_2[2]
 326  0019  0080     E  	mov ra,a
 326  001A  1080     E  	sz ra
 326  001B  2800     R  	jmp _L7
 328  001C              #line 328 "E:\jim\project\A2021\RF392\copy from pc\RF392A003_V01\USER_PROGRAM\USER_PROGRAM.c"
 328  001C  3000     R  	set _userflag2[0].0
 328  001D              _L7:
 332  001D              #line 332 "E:\jim\project\A2021\RF392\copy from pc\RF392A003_V01\USER_PROGRAM\USER_PROGRAM.c"
 332  001D  3800     R  	snz _userflag1[0].6
 332  001E  2800     R  	jmp _L10
 334  001F              #line 334 "E:\jim\project\A2021\RF392\copy from pc\RF392A003_V01\USER_PROGRAM\USER_PROGRAM.c"
 334  001F  1480     R  	inc _keyonlyrlstxtimer[0]
 335  0020              #line 335 "E:\jim\project\A2021\RF392\copy from pc\RF392A003_V01\USER_PROGRAM\USER_PROGRAM.c"
 335  0020  3C00     R  	sz _keyonlyrlstxtimer[0].0
 335  0021  2800     R  	jmp _L10
 337  0022              #line 337 "E:\jim\project\A2021\RF392\copy from pc\RF392A003_V01\USER_PROGRAM\USER_PROGRAM.c"
 337  0022  3000     R  	set _userflag2[0].7
 337  0023              _L10:
 346  0023              #line 346 "E:\jim\project\A2021\RF392\copy from pc\RF392A003_V01\USER_PROGRAM\USER_PROGRAM.c"
 346  0023  3800     R  	snz _userflag1[0].7
 346  0024  2800     R  	jmp _L12
 348  0025              #line 348 "E:\jim\project\A2021\RF392\copy from pc\RF392A003_V01\USER_PROGRAM\USER_PROGRAM.c"
 348  0025  1480     R  	inc _keymachtimer[0]
 348  0026  3D0A        	sz z
文件：USER_PROGRAM.c 编译器版本 HGASM 0202 页次4

 348  0027  1480     R  	inc _keymachtimer[1]
 348  0028              _L12:
 351  0028              #line 351 "E:\jim\project\A2021\RF392\copy from pc\RF392A003_V01\USER_PROGRAM\USER_PROGRAM.c"
 351  0028  3800     R  	snz _userflag5[0].7
 351  0029  2800     R  	jmp _L13
 353  002A              #line 353 "E:\jim\project\A2021\RF392\copy from pc\RF392A003_V01\USER_PROGRAM\USER_PROGRAM.c"
 353  002A  1480     R  	inc _keyledidicatetimer[0]
 353  002B  3D0A        	sz z
 353  002C  1480     R  	inc _keyledidicatetimer[1]
 353  002D              _L13:
 355  002D              #line 355 "E:\jim\project\A2021\RF392\copy from pc\RF392A003_V01\USER_PROGRAM\USER_PROGRAM.c"
 355  002D  1480     E  	inc _itcounter[0]
 355  002E  3D0A        	sz z
 355  002F  1480     E  	inc _itcounter[1]
 357  0030              #line 357 "E:\jim\project\A2021\RF392\copy from pc\RF392A003_V01\USER_PROGRAM\USER_PROGRAM.c"
 357  0030  369D        	clr [29].5
 357  0031  0700     E  	mov a,r2
 357  0032  008A        	mov status,a
 357  0033  0700     E  	mov a,r1
 357  0034  0004        	reti
 357  0035              _INTERRUPTTIMER0 endp
 357  0035              
 357  0035              #line 357 "E:\jim\project\A2021\RF392\copy from pc\RF392A003_V01\USER_PROGRAM\USER_PROGRAM.c"
 357  0035              #pragma debug scope 1 1
 357  0035              ___ctmc0 equ [40]
 357  0035              public _TurnoffTimer0
 357  0035              #pragma debug scope 5 1
 392  0035              #line 392 "E:\jim\project\A2021\RF392\copy from pc\RF392A003_V01\USER_PROGRAM\USER_PROGRAM.c"
 392  0000              _TurnoffTimer0 .section 'code'
 392  0000              _TurnoffTimer0 proc
 393  0000              #line 393 "E:\jim\project\A2021\RF392\copy from pc\RF392A003_V01\USER_PROGRAM\USER_PROGRAM.c"
 393  0000  35A8        	clr [40].3
 393  0001  0003        	ret
 393  0002              _TurnoffTimer0 endp
 393  0002              #line 393 "E:\jim\project\A2021\RF392\copy from pc\RF392A003_V01\USER_PROGRAM\USER_PROGRAM.c"
 393  0002              #pragma debug scope 1 1
 393  0002              public _TurnonTimer0
 393  0002              #pragma debug scope 6 1
 397  0002              #line 397 "E:\jim\project\A2021\RF392\copy from pc\RF392A003_V01\USER_PROGRAM\USER_PROGRAM.c"
 397  0000              _TurnonTimer0 .section 'code'
 397  0000              _TurnonTimer0 proc
 398  0000              #line 398 "E:\jim\project\A2021\RF392\copy from pc\RF392A003_V01\USER_PROGRAM\USER_PROGRAM.c"
 398  0000  31A8        	set [40].3
 398  0001  0003        	ret
 398  0002              _TurnonTimer0 endp
 398  0002              #line 398 "E:\jim\project\A2021\RF392\copy from pc\RF392A003_V01\USER_PROGRAM\USER_PROGRAM.c"
 398  0002              #pragma debug scope 1 1
 398  0002              public _clrflagledtimer
 398  0002              #pragma debug scope 7 1
 523  0002              #line 523 "E:\jim\project\A2021\RF392\copy from pc\RF392A003_V01\USER_PROGRAM\USER_PROGRAM.c"
 523  0000              _clrflagledtimer .section 'code'
 523  0000              _clrflagledtimer proc
 525  0000              #line 525 "E:\jim\project\A2021\RF392\copy from pc\RF392A003_V01\USER_PROGRAM\USER_PROGRAM.c"
 525  0000  3400     R  	clr _userflag5[0].7
 526  0001              #line 526 "E:\jim\project\A2021\RF392\copy from pc\RF392A003_V01\USER_PROGRAM\USER_PROGRAM.c"
 526  0001  1F00     R  	clr _keyledidicatetimer[0]
 526  0002  1F00     R  	clr _keyledidicatetimer[1]
 526  0003  0003        	ret
 526  0004              _clrflagledtimer endp
 526  0004              #line 526 "E:\jim\project\A2021\RF392\copy from pc\RF392A003_V01\USER_PROGRAM\USER_PROGRAM.c"
文件：USER_PROGRAM.c 编译器版本 HGASM 0202 页次5

 526  0004              #pragma debug scope 1 1
 526  0004              ___pa equ [20]
 526  0004              ___pb equ [32]
 526  0004              ___pcpu equ [58]
 526  0004              ___pcc equ [57]
 526  0004              ___pc equ [56]
 526  0004              ___pd equ [53]
 526  0004              ___acerl equ [50]
 526  0004              ___ctmc1 equ [41]
 526  0004              ___ctmal equ [44]
 526  0004              ___ctmah equ [45]
 526  0004              ___intc2 equ [16]
 526  0004              ___intc0 equ [14]
 526  0004              public _USER_PROGRAM_INITIAL
 526  0004              #pragma debug scope 8 1
 529  0004              #line 529 "E:\jim\project\A2021\RF392\copy from pc\RF392A003_V01\USER_PROGRAM\USER_PROGRAM.c"
 529  0000              _USER_PROGRAM_INITIAL .section 'code'
 529  0000              _USER_PROGRAM_INITIAL proc
 531  0000              #line 531 "E:\jim\project\A2021\RF392\copy from pc\RF392A003_V01\USER_PROGRAM\USER_PROGRAM.c"
 531  0000  0F60        	mov a,96
 531  0001  0096        	mov [22],a
 532  0002              #line 532 "E:\jim\project\A2021\RF392\copy from pc\RF392A003_V01\USER_PROGRAM\USER_PROGRAM.c"
 532  0002  0F60        	mov a,96
 532  0003  0095        	mov [21],a
 533  0004              #line 533 "E:\jim\project\A2021\RF392\copy from pc\RF392A003_V01\USER_PROGRAM\USER_PROGRAM.c"
 533  0004  0F7F        	mov a,127
 533  0005  0094        	mov [20],a
 535  0006              #line 535 "E:\jim\project\A2021\RF392\copy from pc\RF392A003_V01\USER_PROGRAM\USER_PROGRAM.c"
 535  0006  37A2        	clr [34].7
 536  0007              #line 536 "E:\jim\project\A2021\RF392\copy from pc\RF392A003_V01\USER_PROGRAM\USER_PROGRAM.c"
 536  0007  37A1        	clr [33].7
 537  0008              #line 537 "E:\jim\project\A2021\RF392\copy from pc\RF392A003_V01\USER_PROGRAM\USER_PROGRAM.c"
 537  0008  33A0        	set [32].7
 539  0009              #line 539 "E:\jim\project\A2021\RF392\copy from pc\RF392A003_V01\USER_PROGRAM\USER_PROGRAM.c"
 539  0009  1F3A        	clr [58]
 540  000A              #line 540 "E:\jim\project\A2021\RF392\copy from pc\RF392A003_V01\USER_PROGRAM\USER_PROGRAM.c"
 540  000A  1F39        	clr [57]
 541  000B              #line 541 "E:\jim\project\A2021\RF392\copy from pc\RF392A003_V01\USER_PROGRAM\USER_PROGRAM.c"
 541  000B  1F38        	clr [56]
 543  000C              #line 543 "E:\jim\project\A2021\RF392\copy from pc\RF392A003_V01\USER_PROGRAM\USER_PROGRAM.c"
 543  000C  1F37        	clr [55]
 544  000D              #line 544 "E:\jim\project\A2021\RF392\copy from pc\RF392A003_V01\USER_PROGRAM\USER_PROGRAM.c"
 544  000D  1F36        	clr [54]
 545  000E              #line 545 "E:\jim\project\A2021\RF392\copy from pc\RF392A003_V01\USER_PROGRAM\USER_PROGRAM.c"
 545  000E  0F22        	mov a,34
 545  000F  00B5        	mov [53],a
 547  0010              #line 547 "E:\jim\project\A2021\RF392\copy from pc\RF392A003_V01\USER_PROGRAM\USER_PROGRAM.c"
 547  0010  1F00     R  	clr _userflag3[0]
 548  0011              #line 548 "E:\jim\project\A2021\RF392\copy from pc\RF392A003_V01\USER_PROGRAM\USER_PROGRAM.c"
 548  0011  1F32        	clr [50]
 548  0012              #pragma debug scope 9 8
 548  0012              ;begin block, line: 548.-1
 548  0012              #pragma debug scope 10 9
 548  0012              ;begin block, line: 548.-1
 368  0012              #line 368 "E:\jim\project\A2021\RF392\copy from pc\RF392A003_V01\USER_PROGRAM\USER_PROGRAM.c"
 368  0012  0F36        	mov a,54
 368  0013  00A8        	mov [40],a
 374  0014              #line 374 "E:\jim\project\A2021\RF392\copy from pc\RF392A003_V01\USER_PROGRAM\USER_PROGRAM.c"
 374  0014  0FC1        	mov a,193
 374  0015  00A9        	mov [41],a
文件：USER_PROGRAM.c 编译器版本 HGASM 0202 页次6

 378  0016              #line 378 "E:\jim\project\A2021\RF392\copy from pc\RF392A003_V01\USER_PROGRAM\USER_PROGRAM.c"
 378  0016  1FAC        	set [44]
 379  0017              #line 379 "E:\jim\project\A2021\RF392\copy from pc\RF392A003_V01\USER_PROGRAM\USER_PROGRAM.c"
 379  0017  0F03        	mov a,3
 379  0018  00AD        	mov [45],a
 380  0019              #line 380 "E:\jim\project\A2021\RF392\copy from pc\RF392A003_V01\USER_PROGRAM\USER_PROGRAM.c"
 380  0019  3010        	set [16].0
 381  001A              #line 381 "E:\jim\project\A2021\RF392\copy from pc\RF392A003_V01\USER_PROGRAM\USER_PROGRAM.c"
 381  001A  3610        	clr [16].4
 384  001B              #line 384 "E:\jim\project\A2021\RF392\copy from pc\RF392A003_V01\USER_PROGRAM\USER_PROGRAM.c"
 384  001B  309D        	set [29].1
 385  001C              #line 385 "E:\jim\project\A2021\RF392\copy from pc\RF392A003_V01\USER_PROGRAM\USER_PROGRAM.c"
 385  001C  369D        	clr [29].5
 387  001D              #line 387 "E:\jim\project\A2021\RF392\copy from pc\RF392A003_V01\USER_PROGRAM\USER_PROGRAM.c"
 387  001D  300E        	set [14].0
 388  001E              #line 388 "E:\jim\project\A2021\RF392\copy from pc\RF392A003_V01\USER_PROGRAM\USER_PROGRAM.c"
 388  001E  31A8        	set [40].3
 388  001F              #pragma debug scope 9 8
 388  001F              #pragma debug scope 8 1
 551  001F              #line 551 "E:\jim\project\A2021\RF392\copy from pc\RF392A003_V01\USER_PROGRAM\USER_PROGRAM.c"
 551  001F  2000     E  	call _LT8900_Reset
 552  0020              #line 552 "E:\jim\project\A2021\RF392\copy from pc\RF392A003_V01\USER_PROGRAM\USER_PROGRAM.c"
 552  0020  2000     R  	call _InitLed
 553  0021              #line 553 "E:\jim\project\A2021\RF392\copy from pc\RF392A003_V01\USER_PROGRAM\USER_PROGRAM.c"
 553  0021  2000     E  	call _LT8900Reg_Init
 553  0022              #pragma debug scope 11 8
 553  0022              ;begin block, line: 553.-1
 553  0022              #pragma debug scope 12 11
 553  0022              ;begin block, line: 553.-1
 223  0022              #line 223 "E:\jim\project\A2021\RF392\copy from pc\RF392A003_V01\USER_PROGRAM\USER_PROGRAM.c"
 223  0022  3D14        	sz [20].2
 223  0023  2800     R  	jmp _L34
 223  0024              _L36:
 226  0024              #line 226 "E:\jim\project\A2021\RF392\copy from pc\RF392A003_V01\USER_PROGRAM\USER_PROGRAM.c"
 226  0024              ;# 226 "E:\jim\project\A2021\RF392\copy from pc\RF392A003_V01\USER_PROGRAM\USER_PROGRAM.c" 1
 226  0024  0001        	clr wdt
 226  0025              ;# 226 "E:\jim\project\A2021\RF392\copy from pc\RF392A003_V01\USER_PROGRAM\USER_PROGRAM.c" 1
 226  0025  0005        	clr wdt2
 226  0026              ;# 226 "E:\jim\project\A2021\RF392\copy from pc\RF392A003_V01\USER_PROGRAM\USER_PROGRAM.c" 1
 226  0026  0001        	clr wdt1
 226  0027              ;# 226 "E:\jim\project\A2021\RF392\copy from pc\RF392A003_V01\USER_PROGRAM\USER_PROGRAM.c" 1
 226  0027  0000        	nop
 227  0028              #line 227 "E:\jim\project\A2021\RF392\copy from pc\RF392A003_V01\USER_PROGRAM\USER_PROGRAM.c"
 227  0028  0700     E  	mov a,_itcounter[0]
 227  0029  0500     E  	or a,_itcounter[1]
 227  002A  3D0A        	sz z
 227  002B  2800     R  	jmp _L36
 227  002C              _L37:
 230  002C              #line 230 "E:\jim\project\A2021\RF392\copy from pc\RF392A003_V01\USER_PROGRAM\USER_PROGRAM.c"
 230  002C  3D14        	sz [20].2
 230  002D  2800     R  	jmp _L51
 232  002E              #line 232 "E:\jim\project\A2021\RF392\copy from pc\RF392A003_V01\USER_PROGRAM\USER_PROGRAM.c"
 232  002E              ;# 232 "E:\jim\project\A2021\RF392\copy from pc\RF392A003_V01\USER_PROGRAM\USER_PROGRAM.c" 1
 232  002E  0001        	clr wdt
 232  002F              ;# 232 "E:\jim\project\A2021\RF392\copy from pc\RF392A003_V01\USER_PROGRAM\USER_PROGRAM.c" 1
 232  002F  0005        	clr wdt2
 232  0030              ;# 232 "E:\jim\project\A2021\RF392\copy from pc\RF392A003_V01\USER_PROGRAM\USER_PROGRAM.c" 1
 232  0030  0001        	clr wdt1
 232  0031              ;# 232 "E:\jim\project\A2021\RF392\copy from pc\RF392A003_V01\USER_PROGRAM\USER_PROGRAM.c" 1
 232  0031  0000        	nop
文件：USER_PROGRAM.c 编译器版本 HGASM 0202 页次7

 232  0032  2800     R  	jmp _L37
 232  0033              _L51:
 236  0033              #line 236 "E:\jim\project\A2021\RF392\copy from pc\RF392A003_V01\USER_PROGRAM\USER_PROGRAM.c"
 236  0033  2000     E  	call _LT8900rf_test
 239  0034              #line 239 "E:\jim\project\A2021\RF392\copy from pc\RF392A003_V01\USER_PROGRAM\USER_PROGRAM.c"
 239  0034  1F00     R  	clr _usertmpvalue[0]
 239  0035              _L39:
 239  0035  1080     R  	sz _usertmpvalue[0]
 239  0036  2800     R  	jmp _L52
 242  0037              #line 242 "E:\jim\project\A2021\RF392\copy from pc\RF392A003_V01\USER_PROGRAM\USER_PROGRAM.c"
 242  0037  3516        	clr [22].2
 242  0038  3515        	clr [21].2
 242  0039  3514        	clr [20].2
 243  003A              #line 243 "E:\jim\project\A2021\RF392\copy from pc\RF392A003_V01\USER_PROGRAM\USER_PROGRAM.c"
 243  003A  340E        	clr [14].0
 243  003B  1F00     E  	clr _itcounter[0]
 243  003C  1F00     E  	clr _itcounter[1]
 243  003D  300E        	set [14].0
 243  003E              _L41:
 243  003E              ;# 243 "E:\jim\project\A2021\RF392\copy from pc\RF392A003_V01\USER_PROGRAM\USER_PROGRAM.c" 1
 243  003E  0001        	clr wdt
 243  003F              ;# 243 "E:\jim\project\A2021\RF392\copy from pc\RF392A003_V01\USER_PROGRAM\USER_PROGRAM.c" 1
 243  003F  0005        	clr wdt2
 243  0040              ;# 243 "E:\jim\project\A2021\RF392\copy from pc\RF392A003_V01\USER_PROGRAM\USER_PROGRAM.c" 1
 243  0040  0001        	clr wdt1
 243  0041  0F1D        	mov a,29
 243  0042  0200     E  	sub a,_itcounter[0]
 243  0043  0F00        	mov a,0
 243  0044  1200     E  	sbc a,_itcounter[1]
 243  0045  3C0A        	sz c
 243  0046  2800     R  	jmp _L41
 244  0047              #line 244 "E:\jim\project\A2021\RF392\copy from pc\RF392A003_V01\USER_PROGRAM\USER_PROGRAM.c"
 244  0047  3516        	clr [22].2
 244  0048  3515        	clr [21].2
 244  0049  3114        	set [20].2
 245  004A              #line 245 "E:\jim\project\A2021\RF392\copy from pc\RF392A003_V01\USER_PROGRAM\USER_PROGRAM.c"
 245  004A  340E        	clr [14].0
 245  004B  1F00     E  	clr _itcounter[0]
 245  004C  1F00     E  	clr _itcounter[1]
 245  004D  300E        	set [14].0
 245  004E              _L43:
 245  004E              ;# 245 "E:\jim\project\A2021\RF392\copy from pc\RF392A003_V01\USER_PROGRAM\USER_PROGRAM.c" 1
 245  004E  0001        	clr wdt
 245  004F              ;# 245 "E:\jim\project\A2021\RF392\copy from pc\RF392A003_V01\USER_PROGRAM\USER_PROGRAM.c" 1
 245  004F  0005        	clr wdt2
 245  0050              ;# 245 "E:\jim\project\A2021\RF392\copy from pc\RF392A003_V01\USER_PROGRAM\USER_PROGRAM.c" 1
 245  0050  0001        	clr wdt1
 245  0051  0F1D        	mov a,29
 245  0052  0200     E  	sub a,_itcounter[0]
 245  0053  0F00        	mov a,0
 245  0054  1200     E  	sbc a,_itcounter[1]
 245  0055  3C0A        	sz c
 245  0056  2800     R  	jmp _L43
 239  0057              #line 239 "E:\jim\project\A2021\RF392\copy from pc\RF392A003_V01\USER_PROGRAM\USER_PROGRAM.c"
 239  0057  1480     R  	inc _usertmpvalue[0]
 239  0058  2800     R  	jmp _L39
 239  0059              _L52:
 247  0059              #line 247 "E:\jim\project\A2021\RF392\copy from pc\RF392A003_V01\USER_PROGRAM\USER_PROGRAM.c"
 247  0059  340E        	clr [14].0
 247  005A  1F00     E  	clr _itcounter[0]
文件：USER_PROGRAM.c 编译器版本 HGASM 0202 页次8

 247  005B  1F00     E  	clr _itcounter[1]
 247  005C  300E        	set [14].0
 247  005D              _L47:
 247  005D              ;# 247 "E:\jim\project\A2021\RF392\copy from pc\RF392A003_V01\USER_PROGRAM\USER_PROGRAM.c" 1
 247  005D  0001        	clr wdt
 247  005E              ;# 247 "E:\jim\project\A2021\RF392\copy from pc\RF392A003_V01\USER_PROGRAM\USER_PROGRAM.c" 1
 247  005E  0005        	clr wdt2
 247  005F              ;# 247 "E:\jim\project\A2021\RF392\copy from pc\RF392A003_V01\USER_PROGRAM\USER_PROGRAM.c" 1
 247  005F  0001        	clr wdt1
 247  0060  0F8F        	mov a,143
 247  0061  0200     E  	sub a,_itcounter[0]
 247  0062  0F01        	mov a,1
 247  0063  1200     E  	sbc a,_itcounter[1]
 247  0064  3C0A        	sz c
 247  0065  2800     R  	jmp _L47
 247  0066              _L50:
 249  0066              #line 249 "E:\jim\project\A2021\RF392\copy from pc\RF392A003_V01\USER_PROGRAM\USER_PROGRAM.c"
 249  0066              ;# 249 "E:\jim\project\A2021\RF392\copy from pc\RF392A003_V01\USER_PROGRAM\USER_PROGRAM.c" 1
 249  0066  0001        	clr wdt
 249  0067              ;# 249 "E:\jim\project\A2021\RF392\copy from pc\RF392A003_V01\USER_PROGRAM\USER_PROGRAM.c" 1
 249  0067  0005        	clr wdt2
 249  0068              ;# 249 "E:\jim\project\A2021\RF392\copy from pc\RF392A003_V01\USER_PROGRAM\USER_PROGRAM.c" 1
 249  0068  0001        	clr wdt1
 249  0069              ;# 249 "E:\jim\project\A2021\RF392\copy from pc\RF392A003_V01\USER_PROGRAM\USER_PROGRAM.c" 1
 249  0069  0000        	nop
 249  006A  2800     R  	jmp _L50
 249  006B              _L34:
 249  006B              #pragma debug scope 11 8
 249  006B              #pragma debug scope 8 1
 556  006B              #line 556 "E:\jim\project\A2021\RF392\copy from pc\RF392A003_V01\USER_PROGRAM\USER_PROGRAM.c"
 556  006B  1F00     E  	clr _itcounter[0]
 556  006C  1F00     E  	clr _itcounter[1]
 557  006D              #line 557 "E:\jim\project\A2021\RF392\copy from pc\RF392A003_V01\USER_PROGRAM\USER_PROGRAM.c"
 557  006D  2000     E  	call _It8920_Idle
 557  006E              #pragma debug scope 13 8
 557  006E              ;begin block, line: 557.-1
 557  006E              #pragma debug scope 14 13
 557  006E              ;begin block, line: 557.-1
 479  006E              #line 479 "E:\jim\project\A2021\RF392\copy from pc\RF392A003_V01\USER_PROGRAM\USER_PROGRAM.c"
 479  006E  3616        	clr [22].4
 479  006F  3615        	clr [21].4
 479  0070  3614        	clr [20].4
 482  0071              #line 482 "E:\jim\project\A2021\RF392\copy from pc\RF392A003_V01\USER_PROGRAM\USER_PROGRAM.c"
 482  0071  3596        	clr [22].3
 482  0072  3595        	clr [21].3
 482  0073  3594        	clr [20].3
 485  0074              #line 485 "E:\jim\project\A2021\RF392\copy from pc\RF392A003_V01\USER_PROGRAM\USER_PROGRAM.c"
 485  0074  3516        	clr [22].2
 485  0075  3515        	clr [21].2
 485  0076  3514        	clr [20].2
 488  0077              #line 488 "E:\jim\project\A2021\RF392\copy from pc\RF392A003_V01\USER_PROGRAM\USER_PROGRAM.c"
 488  0077  3416        	clr [22].0
 488  0078  3415        	clr [21].0
 488  0079  3414        	clr [20].0
 491  007A              #line 491 "E:\jim\project\A2021\RF392\copy from pc\RF392A003_V01\USER_PROGRAM\USER_PROGRAM.c"
 491  007A  34B7        	clr [55].1
 491  007B  34B6        	clr [54].1
 491  007C  34B5        	clr [53].1
 494  007D              #line 494 "E:\jim\project\A2021\RF392\copy from pc\RF392A003_V01\USER_PROGRAM\USER_PROGRAM.c"
 494  007D  36B7        	clr [55].5
文件：USER_PROGRAM.c 编译器版本 HGASM 0202 页次9

 494  007E  36B6        	clr [54].5
 494  007F  36B5        	clr [53].5
 497  0080              #line 497 "E:\jim\project\A2021\RF392\copy from pc\RF392A003_V01\USER_PROGRAM\USER_PROGRAM.c"
 497  0080  37A2        	clr [34].7
 497  0081  37A1        	clr [33].7
 497  0082  37A0        	clr [32].7
 497  0083              _L49:
 497  0083              #pragma debug scope 13 8
 497  0083              #pragma debug scope 8 1
 561  0083              #line 561 "E:\jim\project\A2021\RF392\copy from pc\RF392A003_V01\USER_PROGRAM\USER_PROGRAM.c"
 561  0083              ;# 561 "E:\jim\project\A2021\RF392\copy from pc\RF392A003_V01\USER_PROGRAM\USER_PROGRAM.c" 1
 561  0083  0001        	clr wdt
 562  0084              #line 562 "E:\jim\project\A2021\RF392\copy from pc\RF392A003_V01\USER_PROGRAM\USER_PROGRAM.c"
 562  0084              ;# 562 "E:\jim\project\A2021\RF392\copy from pc\RF392A003_V01\USER_PROGRAM\USER_PROGRAM.c" 1
 562  0084  0005        	clr wdt2
 563  0085              #line 563 "E:\jim\project\A2021\RF392\copy from pc\RF392A003_V01\USER_PROGRAM\USER_PROGRAM.c"
 563  0085              ;# 563 "E:\jim\project\A2021\RF392\copy from pc\RF392A003_V01\USER_PROGRAM\USER_PROGRAM.c" 1
 563  0085  0001        	clr wdt1
 564  0086              #line 564 "E:\jim\project\A2021\RF392\copy from pc\RF392A003_V01\USER_PROGRAM\USER_PROGRAM.c"
 564  0086              ;# 564 "E:\jim\project\A2021\RF392\copy from pc\RF392A003_V01\USER_PROGRAM\USER_PROGRAM.c" 1
 564  0086  0000        	nop
 565  0087              #line 565 "E:\jim\project\A2021\RF392\copy from pc\RF392A003_V01\USER_PROGRAM\USER_PROGRAM.c"
 565  0087  0F14        	mov a,20
 565  0088  0200     E  	sub a,_itcounter[0]
 565  0089  0F00        	mov a,0
 565  008A  1200     E  	sbc a,_itcounter[1]
 565  008B  3C0A        	sz c
 565  008C  2800     R  	jmp _L49
 568  008D              #line 568 "E:\jim\project\A2021\RF392\copy from pc\RF392A003_V01\USER_PROGRAM\USER_PROGRAM.c"
 568  008D  2000     R  	call _InitLed
 570  008E              #line 570 "E:\jim\project\A2021\RF392\copy from pc\RF392A003_V01\USER_PROGRAM\USER_PROGRAM.c"
 570  008E  3000     R  	set _userflag1[0].1
 571  008F              #line 571 "E:\jim\project\A2021\RF392\copy from pc\RF392A003_V01\USER_PROGRAM\USER_PROGRAM.c"
 571  008F  1F00     R  	clr _keyledtimer[0]
 571  0090  1F00     R  	clr _keyledtimer[1]
 571  0091  0003        	ret
 571  0092              _USER_PROGRAM_INITIAL endp
 571  0092              #line 571 "E:\jim\project\A2021\RF392\copy from pc\RF392A003_V01\USER_PROGRAM\USER_PROGRAM.c"
 571  0092              #pragma debug scope 1 1
 571  0092              _tempcount equ [915]
 571  0092              public _USER_PROGRAM
 571  0092              #pragma debug scope 15 1
 578  0092              #line 578 "E:\jim\project\A2021\RF392\copy from pc\RF392A003_V01\USER_PROGRAM\USER_PROGRAM.c"
 578  0000              _USER_PROGRAM .section 'code'
 578  0000              _USER_PROGRAM proc
 578  0000  00              local _USER_PROGRAM_2 db 1 dup(?)	; 0,1
 579  0001              #line 579 "E:\jim\project\A2021\RF392\copy from pc\RF392A003_V01\USER_PROGRAM\USER_PROGRAM.c"
 579  0000  0700     E  	mov a,_STANDBY_TIME[0]
 579  0001  0080     R  	mov _usertmpvalue[0],a
 580  0002              #line 580 "E:\jim\project\A2021\RF392\copy from pc\RF392A003_V01\USER_PROGRAM\USER_PROGRAM.c"
 580  0002  0F01        	mov a,1
 580  0003  0200     R  	sub a,_usertmpvalue[0]
 580  0004  380A        	snz c
 580  0005  2800     R  	jmp _L54
 582  0006              #line 582 "E:\jim\project\A2021\RF392\copy from pc\RF392A003_V01\USER_PROGRAM\USER_PROGRAM.c"
 582  0006  3C00     R  	sz _userflag2[0].1
 582  0007  2800     R  	jmp _L55
 587  0008              #line 587 "E:\jim\project\A2021\RF392\copy from pc\RF392A003_V01\USER_PROGRAM\USER_PROGRAM.c"
 587  0008  2000     E  	call _It8920_Sleep
 588  0009              #line 588 "E:\jim\project\A2021\RF392\copy from pc\RF392A003_V01\USER_PROGRAM\USER_PROGRAM.c"
文件：USER_PROGRAM.c 编译器版本 HGASM 0202 页次10

 588  0009  3000     R  	set _userflag2[0].1
 590  000A              #line 590 "E:\jim\project\A2021\RF392\copy from pc\RF392A003_V01\USER_PROGRAM\USER_PROGRAM.c"
 590  000A  3400     R  	clr _userflag1[0].1
 591  000B              #line 591 "E:\jim\project\A2021\RF392\copy from pc\RF392A003_V01\USER_PROGRAM\USER_PROGRAM.c"
 591  000B  1F00     R  	clr _keyledtimer[0]
 591  000C  1F00     R  	clr _keyledtimer[1]
 593  000D              #line 593 "E:\jim\project\A2021\RF392\copy from pc\RF392A003_V01\USER_PROGRAM\USER_PROGRAM.c"
 593  000D  2000     R  	call _clrflagledtimer
 593  000E              _L55:
 595  000E              #line 595 "E:\jim\project\A2021\RF392\copy from pc\RF392A003_V01\USER_PROGRAM\USER_PROGRAM.c"
 595  000E  3400     R  	clr _userflag2[0].2
 595  000F  2800     R  	jmp _L56
 595  0010              _L54:
 600  0010              #line 600 "E:\jim\project\A2021\RF392\copy from pc\RF392A003_V01\USER_PROGRAM\USER_PROGRAM.c"
 600  0010  0700     R  	mov a,_usertmpvalue[0]
 600  0011  0A7E        	sub a,126
 600  0012  390A        	snz z
 600  0013  2800     R  	jmp _L56
 602  0014              #line 602 "E:\jim\project\A2021\RF392\copy from pc\RF392A003_V01\USER_PROGRAM\USER_PROGRAM.c"
 602  0014  3400     R  	clr _userflag2[0].1
 603  0015              #line 603 "E:\jim\project\A2021\RF392\copy from pc\RF392A003_V01\USER_PROGRAM\USER_PROGRAM.c"
 603  0015  340E        	clr [14].0
 604  0016              #line 604 "E:\jim\project\A2021\RF392\copy from pc\RF392A003_V01\USER_PROGRAM\USER_PROGRAM.c"
 604  0016  0F12        	mov a,18
 604  0017  0080     E  	mov _STANDBY_TIME[0],a
 605  0018              #line 605 "E:\jim\project\A2021\RF392\copy from pc\RF392A003_V01\USER_PROGRAM\USER_PROGRAM.c"
 605  0018  300E        	set [14].0
 607  0019              #line 607 "E:\jim\project\A2021\RF392\copy from pc\RF392A003_V01\USER_PROGRAM\USER_PROGRAM.c"
 607  0019  3C00     R  	sz _userflag2[0].2
 607  001A  2800     R  	jmp _L56
 617  001B              #line 617 "E:\jim\project\A2021\RF392\copy from pc\RF392A003_V01\USER_PROGRAM\USER_PROGRAM.c"
 617  001B  3400     R  	clr _userflag1[0].3
 618  001C              #line 618 "E:\jim\project\A2021\RF392\copy from pc\RF392A003_V01\USER_PROGRAM\USER_PROGRAM.c"
 618  001C  3400     R  	clr _userflag1[0].3
 619  001D              #line 619 "E:\jim\project\A2021\RF392\copy from pc\RF392A003_V01\USER_PROGRAM\USER_PROGRAM.c"
 619  001D  1F00     R  	clr _keypairtimer[0]
 619  001E  1F00     R  	clr _keypairtimer[1]
 620  001F              #line 620 "E:\jim\project\A2021\RF392\copy from pc\RF392A003_V01\USER_PROGRAM\USER_PROGRAM.c"
 620  001F  1F00     R  	clr _K7paircounter[0]
 621  0020              #line 621 "E:\jim\project\A2021\RF392\copy from pc\RF392A003_V01\USER_PROGRAM\USER_PROGRAM.c"
 621  0020  3400     R  	clr _userflag4[0].1
 622  0021              #line 622 "E:\jim\project\A2021\RF392\copy from pc\RF392A003_V01\USER_PROGRAM\USER_PROGRAM.c"
 622  0021  3400     R  	clr _userflag3[0].0
 624  0022              #line 624 "E:\jim\project\A2021\RF392\copy from pc\RF392A003_V01\USER_PROGRAM\USER_PROGRAM.c"
 624  0022  1F00     R  	clr _userflag4[0]
 625  0023              #line 625 "E:\jim\project\A2021\RF392\copy from pc\RF392A003_V01\USER_PROGRAM\USER_PROGRAM.c"
 625  0023  1F00     R  	clr _userflag1[0]
 626  0024              #line 626 "E:\jim\project\A2021\RF392\copy from pc\RF392A003_V01\USER_PROGRAM\USER_PROGRAM.c"
 626  0024  1F00     R  	clr _userflag2[0]
 627  0025              #line 627 "E:\jim\project\A2021\RF392\copy from pc\RF392A003_V01\USER_PROGRAM\USER_PROGRAM.c"
 627  0025  1F00     R  	clr _userflag3[0]
 628  0026              #line 628 "E:\jim\project\A2021\RF392\copy from pc\RF392A003_V01\USER_PROGRAM\USER_PROGRAM.c"
 628  0026  1F00     R  	clr _userflag5[0]
 629  0027              #line 629 "E:\jim\project\A2021\RF392\copy from pc\RF392A003_V01\USER_PROGRAM\USER_PROGRAM.c"
 629  0027  1F00     R  	clr _keyvalue[0]
 631  0028              #line 631 "E:\jim\project\A2021\RF392\copy from pc\RF392A003_V01\USER_PROGRAM\USER_PROGRAM.c"
 631  0028  3000     R  	set _userflag2[0].2
 633  0029              #line 633 "E:\jim\project\A2021\RF392\copy from pc\RF392A003_V01\USER_PROGRAM\USER_PROGRAM.c"
 633  0029  3400     R  	clr _userflag3[0].7
 635  002A              #line 635 "E:\jim\project\A2021\RF392\copy from pc\RF392A003_V01\USER_PROGRAM\USER_PROGRAM.c"
文件：USER_PROGRAM.c 编译器版本 HGASM 0202 页次11

 635  002A  3000     R  	set _userflag1[0].1
 636  002B              #line 636 "E:\jim\project\A2021\RF392\copy from pc\RF392A003_V01\USER_PROGRAM\USER_PROGRAM.c"
 636  002B  1F00     R  	clr _keyledtimer[0]
 636  002C  1F00     R  	clr _keyledtimer[1]
 638  002D              #line 638 "E:\jim\project\A2021\RF392\copy from pc\RF392A003_V01\USER_PROGRAM\USER_PROGRAM.c"
 638  002D  1F00     R  	clr _keyonlyrlstxtimer[0]
 640  002E              #line 640 "E:\jim\project\A2021\RF392\copy from pc\RF392A003_V01\USER_PROGRAM\USER_PROGRAM.c"
 640  002E  2000     R  	call _clrflagledtimer
 640  002F              _L56:
 645  002F              #line 645 "E:\jim\project\A2021\RF392\copy from pc\RF392A003_V01\USER_PROGRAM\USER_PROGRAM.c"
 645  002F  0700     E  	mov a,_TKS_FLAGA[0]
 645  0030  0080     R  	mov _USER_PROGRAM_2[0],a
 645  0031  3800     R  	snz _USER_PROGRAM_2[0].2
 645  0032  2800     R  	jmp _L60
 647  0033              #line 647 "E:\jim\project\A2021\RF392\copy from pc\RF392A003_V01\USER_PROGRAM\USER_PROGRAM.c"
 647  0033  3800     R  	snz _USER_PROGRAM_2[0].3
 647  0034  2800     R  	jmp _L61
 650  0035              #line 650 "E:\jim\project\A2021\RF392\copy from pc\RF392A003_V01\USER_PROGRAM\USER_PROGRAM.c"
 650  0035  3000     R  	set _userflag4[0].2
 651  0036              #line 651 "E:\jim\project\A2021\RF392\copy from pc\RF392A003_V01\USER_PROGRAM\USER_PROGRAM.c"
 651  0036  3400     R  	clr _userflag1[0].1
 652  0037              #line 652 "E:\jim\project\A2021\RF392\copy from pc\RF392A003_V01\USER_PROGRAM\USER_PROGRAM.c"
 652  0037  1F00     R  	clr _keyledtimer[0]
 652  0038  1F00     R  	clr _keyledtimer[1]
 655  0039              #line 655 "E:\jim\project\A2021\RF392\copy from pc\RF392A003_V01\USER_PROGRAM\USER_PROGRAM.c"
 655  0039  3C00     R  	sz _userflag3[0].7
 655  003A  2800     R  	jmp _L62
 657  003B              #line 657 "E:\jim\project\A2021\RF392\copy from pc\RF392A003_V01\USER_PROGRAM\USER_PROGRAM.c"
 657  003B  3000     R  	set _userflag3[0].7
 658  003C              #line 658 "E:\jim\project\A2021\RF392\copy from pc\RF392A003_V01\USER_PROGRAM\USER_PROGRAM.c"
 658  003C  2000     E  	call _LT8900_Reset
 659  003D              #line 659 "E:\jim\project\A2021\RF392\copy from pc\RF392A003_V01\USER_PROGRAM\USER_PROGRAM.c"
 659  003D  2000     E  	call _LT8900Reg_Init
 659  003E              _L62:
 661  003E              #line 661 "E:\jim\project\A2021\RF392\copy from pc\RF392A003_V01\USER_PROGRAM\USER_PROGRAM.c"
 661  003E  2000     E  	call _GET_KEY_BITMAP
 662  003F              #line 662 "E:\jim\project\A2021\RF392\copy from pc\RF392A003_V01\USER_PROGRAM\USER_PROGRAM.c"
 662  003F  0700     E  	mov a,_DATA_BUF[0]
 662  0040  0080     R  	mov _keyvalue[0],a
 665  0041              #line 665 "E:\jim\project\A2021\RF392\copy from pc\RF392A003_V01\USER_PROGRAM\USER_PROGRAM.c"
 665  0041  0700     R  	mov a,_keyvalue[0]
 665  0042  0200     R  	sub a,_pkeyvalue[0]
 665  0043  3D0A        	sz z
 665  0044  2800     R  	jmp _L63
 668  0045              #line 668 "E:\jim\project\A2021\RF392\copy from pc\RF392A003_V01\USER_PROGRAM\USER_PROGRAM.c"
 668  0045  0700     R  	mov a,_keyvalue[0]
 668  0046  0080     R  	mov _pkeyvalue[0],a
 669  0047              #line 669 "E:\jim\project\A2021\RF392\copy from pc\RF392A003_V01\USER_PROGRAM\USER_PROGRAM.c"
 669  0047  3C00     R  	sz _userflag3[0].0
 669  0048  2800     R  	jmp _L64
 669  0049  0700     R  	mov a,_keyvalue[0]
 669  004A  0A40        	sub a,64
 669  004B  3D0A        	sz z
 669  004C  2800     R  	jmp _L65
 669  004D              _L64:
 672  004D              #line 672 "E:\jim\project\A2021\RF392\copy from pc\RF392A003_V01\USER_PROGRAM\USER_PROGRAM.c"
 672  004D  3400     R  	clr _userflag1[0].3
 673  004E              #line 673 "E:\jim\project\A2021\RF392\copy from pc\RF392A003_V01\USER_PROGRAM\USER_PROGRAM.c"
 673  004E  3400     R  	clr _userflag1[0].3
 674  004F              #line 674 "E:\jim\project\A2021\RF392\copy from pc\RF392A003_V01\USER_PROGRAM\USER_PROGRAM.c"
文件：USER_PROGRAM.c 编译器版本 HGASM 0202 页次12

 674  004F  1F00     R  	clr _keypairtimer[0]
 674  0050  1F00     R  	clr _keypairtimer[1]
 675  0051              #line 675 "E:\jim\project\A2021\RF392\copy from pc\RF392A003_V01\USER_PROGRAM\USER_PROGRAM.c"
 675  0051  1F00     R  	clr _K7paircounter[0]
 676  0052              #line 676 "E:\jim\project\A2021\RF392\copy from pc\RF392A003_V01\USER_PROGRAM\USER_PROGRAM.c"
 676  0052  3400     R  	clr _userflag4[0].1
 677  0053              #line 677 "E:\jim\project\A2021\RF392\copy from pc\RF392A003_V01\USER_PROGRAM\USER_PROGRAM.c"
 677  0053  3400     R  	clr _userflag3[0].0
 677  0054              _L65:
 681  0054              #line 681 "E:\jim\project\A2021\RF392\copy from pc\RF392A003_V01\USER_PROGRAM\USER_PROGRAM.c"
 681  0054  340E        	clr [14].0
 682  0055              #line 682 "E:\jim\project\A2021\RF392\copy from pc\RF392A003_V01\USER_PROGRAM\USER_PROGRAM.c"
 682  0055  1F00     R  	clr _keypresstimer[0]
 682  0056  1F00     R  	clr _keypresstimer[1]
 683  0057              #line 683 "E:\jim\project\A2021\RF392\copy from pc\RF392A003_V01\USER_PROGRAM\USER_PROGRAM.c"
 683  0057  300E        	set [14].0
 707  0058              #line 707 "E:\jim\project\A2021\RF392\copy from pc\RF392A003_V01\USER_PROGRAM\USER_PROGRAM.c"
 707  0058  3C00     R  	sz _userflag3[0].6
 707  0059  2800     R  	jmp _L66
 708  005A              #line 708 "E:\jim\project\A2021\RF392\copy from pc\RF392A003_V01\USER_PROGRAM\USER_PROGRAM.c"
 708  005A  1480     E  	inc _ittranscounter[0]
 708  005B  3D0A        	sz z
 708  005C  1480     E  	inc _ittranscounter[1]
 708  005D              _L66:
 710  005D              #line 710 "E:\jim\project\A2021\RF392\copy from pc\RF392A003_V01\USER_PROGRAM\USER_PROGRAM.c"
 710  005D  3400     R  	clr _userflag3[0].3
 711  005E              #line 711 "E:\jim\project\A2021\RF392\copy from pc\RF392A003_V01\USER_PROGRAM\USER_PROGRAM.c"
 711  005E  3400     R  	clr _userflag3[0].4
 712  005F              #line 712 "E:\jim\project\A2021\RF392\copy from pc\RF392A003_V01\USER_PROGRAM\USER_PROGRAM.c"
 712  005F  3400     R  	clr _userflag4[0].7
 715  0060              #line 715 "E:\jim\project\A2021\RF392\copy from pc\RF392A003_V01\USER_PROGRAM\USER_PROGRAM.c"
 715  0060  2000     R  	call _InitLed
 716  0061              #line 716 "E:\jim\project\A2021\RF392\copy from pc\RF392A003_V01\USER_PROGRAM\USER_PROGRAM.c"
 716  0061  1F00     R  	clr _userflag5[0]
 719  0062              #line 719 "E:\jim\project\A2021\RF392\copy from pc\RF392A003_V01\USER_PROGRAM\USER_PROGRAM.c"
 719  0062  0F01        	mov a,1
 719  0063  0080     R  	mov _keysamerepeatflag[0],a
 720  0064              #line 720 "E:\jim\project\A2021\RF392\copy from pc\RF392A003_V01\USER_PROGRAM\USER_PROGRAM.c"
 720  0064  1F00     R  	clr _keysamecounter[0]
 723  0065              #line 723 "E:\jim\project\A2021\RF392\copy from pc\RF392A003_V01\USER_PROGRAM\USER_PROGRAM.c"
 723  0065  0700     R  	mov a,_keyvalue[0]
 723  0066  0080     R  	mov _keytempvalue[0],a
 724  0067              #line 724 "E:\jim\project\A2021\RF392\copy from pc\RF392A003_V01\USER_PROGRAM\USER_PROGRAM.c"
 724  0067  1F00     R  	clr _keycount[0]
 725  0068              #line 725 "E:\jim\project\A2021\RF392\copy from pc\RF392A003_V01\USER_PROGRAM\USER_PROGRAM.c"
 725  0068  0F93        	mov a,low offset _tempcount
 725  0069  0083        	mov mp,a
 725  006A  0F03        	mov a,high offset _tempcount
 725  006B  0081        	mov sbp,a
 725  006C  0701        	mov a,sbp
 725  006D  0084        	mov bp,a
 725  006E  0F00        	mov a,0
 725  006F  0082        	mov ir,a
 725  0070              _L67:
 725  0070  0F93        	mov a,low offset _tempcount
 725  0071  0083        	mov mp,a
 725  0072  0F03        	mov a,high offset _tempcount
 725  0073  0081        	mov sbp,a
 725  0074  0701        	mov a,sbp
 725  0075  0084        	mov bp,a
文件：USER_PROGRAM.c 编译器版本 HGASM 0202 页次13

 725  0076  0702        	mov a,ir
 725  0077  0080     E  	mov ra,a
 725  0078  0F06        	mov a,6
 725  0079  0200     E  	sub a,ra
 725  007A  380A        	snz c
 725  007B  2800     R  	jmp _L219
 727  007C              #line 727 "E:\jim\project\A2021\RF392\copy from pc\RF392A003_V01\USER_PROGRAM\USER_PROGRAM.c"
 727  007C  3800     R  	snz _keytempvalue[0].0
 727  007D  2800     R  	jmp _L68
 729  007E              #line 729 "E:\jim\project\A2021\RF392\copy from pc\RF392A003_V01\USER_PROGRAM\USER_PROGRAM.c"
 729  007E  1480     R  	inc _keycount[0]
 729  007F              _L68:
 731  007F              #line 731 "E:\jim\project\A2021\RF392\copy from pc\RF392A003_V01\USER_PROGRAM\USER_PROGRAM.c"
 731  007F  340A        	clr c
 731  0080  1B80     R  	rrc _keytempvalue[0]
 725  0081              #line 725 "E:\jim\project\A2021\RF392\copy from pc\RF392A003_V01\USER_PROGRAM\USER_PROGRAM.c"
 725  0081  0F93        	mov a,low offset _tempcount
 725  0082  0083        	mov mp,a
 725  0083  0F03        	mov a,high offset _tempcount
 725  0084  0081        	mov sbp,a
 725  0085  0701        	mov a,sbp
 725  0086  0084        	mov bp,a
 725  0087  0702        	mov a,ir
 725  0088  0080     R  	mov _USER_PROGRAM_2[0],a
 725  0089  1400     R  	inca _USER_PROGRAM_2[0]
 725  008A  0080     E  	mov ra,a
 725  008B  0701        	mov a,sbp
 725  008C  0084        	mov bp,a
 725  008D  0700     E  	mov a,ra
 725  008E  0082        	mov ir,a
 725  008F  2800     R  	jmp _L67
 725  0090              _L219:
 733  0090              #line 733 "E:\jim\project\A2021\RF392\copy from pc\RF392A003_V01\USER_PROGRAM\USER_PROGRAM.c"
 733  0090  0F01        	mov a,1
 733  0091  0200     R  	sub a,_keycount[0]
 733  0092  380A        	snz c
 733  0093  2800     R  	jmp _L71
 740  0094              #line 740 "E:\jim\project\A2021\RF392\copy from pc\RF392A003_V01\USER_PROGRAM\USER_PROGRAM.c"
 740  0094  3800     R  	snz _userflag4[0].4
 740  0095  2800     R  	jmp _L71
 748  0096              #line 748 "E:\jim\project\A2021\RF392\copy from pc\RF392A003_V01\USER_PROGRAM\USER_PROGRAM.c"
 748  0096  1F00     R  	clr _keysamerepeatflag[0]
 749  0097              #line 749 "E:\jim\project\A2021\RF392\copy from pc\RF392A003_V01\USER_PROGRAM\USER_PROGRAM.c"
 749  0097  1F00     R  	clr _keysamecounter[0]
 751  0098              #line 751 "E:\jim\project\A2021\RF392\copy from pc\RF392A003_V01\USER_PROGRAM\USER_PROGRAM.c"
 751  0098  2000     R  	call _InitLed
 751  0099  2800     R  	jmp _L71
 751  009A              _L63:
 762  009A              #line 762 "E:\jim\project\A2021\RF392\copy from pc\RF392A003_V01\USER_PROGRAM\USER_PROGRAM.c"
 762  009A  3800     R  	snz _userflag4[0].4
 762  009B  2800     R  	jmp _L73
 764  009C              #line 764 "E:\jim\project\A2021\RF392\copy from pc\RF392A003_V01\USER_PROGRAM\USER_PROGRAM.c"
 764  009C  3C00     R  	sz _userflag3[0].3
 764  009D  2800     R  	jmp _L74
 764  009E  3C00     R  	sz _userflag3[0].4
 764  009F  2800     R  	jmp _L74
 764  00A0  3800     R  	snz _userflag4[0].7
 764  00A1  2800     R  	jmp _L75
 764  00A2              _L74:
 766  00A2              #line 766 "E:\jim\project\A2021\RF392\copy from pc\RF392A003_V01\USER_PROGRAM\USER_PROGRAM.c"
文件：USER_PROGRAM.c 编译器版本 HGASM 0202 页次14

 766  00A2  1F00     R  	clr _keysamecounter[0]
 767  00A3              #line 767 "E:\jim\project\A2021\RF392\copy from pc\RF392A003_V01\USER_PROGRAM\USER_PROGRAM.c"
 767  00A3  0F01        	mov a,1
 767  00A4  0080     R  	mov _keysamerepeatflag[0],a
 767  00A5  2800     R  	jmp _L76
 767  00A6              _L75:
 772  00A6              #line 772 "E:\jim\project\A2021\RF392\copy from pc\RF392A003_V01\USER_PROGRAM\USER_PROGRAM.c"
 772  00A6  1F00     R  	clr _keysamecounter[0]
 773  00A7              #line 773 "E:\jim\project\A2021\RF392\copy from pc\RF392A003_V01\USER_PROGRAM\USER_PROGRAM.c"
 773  00A7  1F00     R  	clr _keysamerepeatflag[0]
 775  00A8              #line 775 "E:\jim\project\A2021\RF392\copy from pc\RF392A003_V01\USER_PROGRAM\USER_PROGRAM.c"
 775  00A8  0F8A        	mov a,138
 775  00A9  0200     R  	sub a,_keypresstimer[0]
 775  00AA  0F02        	mov a,2
 775  00AB  1200     R  	sbc a,_keypresstimer[1]
 775  00AC  3C0A        	sz c
 775  00AD  2800     R  	jmp _L77
 777  00AE              #line 777 "E:\jim\project\A2021\RF392\copy from pc\RF392A003_V01\USER_PROGRAM\USER_PROGRAM.c"
 777  00AE  2000     R  	call _InitLed
 777  00AF  2800     R  	jmp _L76
 777  00B0              _L77:
 780  00B0              #line 780 "E:\jim\project\A2021\RF392\copy from pc\RF392A003_V01\USER_PROGRAM\USER_PROGRAM.c"
 780  00B0  0F71        	mov a,113
 780  00B1  0200     R  	sub a,_keypresstimer[0]
 780  00B2  0F02        	mov a,2
 780  00B3  1200     R  	sbc a,_keypresstimer[1]
 780  00B4  3C0A        	sz c
 780  00B5  2800     R  	jmp _L76
 782  00B6              #line 782 "E:\jim\project\A2021\RF392\copy from pc\RF392A003_V01\USER_PROGRAM\USER_PROGRAM.c"
 782  00B6  3616        	clr [22].4
 782  00B7  3615        	clr [21].4
 782  00B8  3614        	clr [20].4
 782  00B9  3596        	clr [22].3
 782  00BA  3595        	clr [21].3
 782  00BB  3594        	clr [20].3
 782  00BC  3516        	clr [22].2
 782  00BD  3515        	clr [21].2
 782  00BE  3114        	set [20].2
 782  00BF  3416        	clr [22].0
 782  00C0  3415        	clr [21].0
 782  00C1  3414        	clr [20].0
 783  00C2              #line 783 "E:\jim\project\A2021\RF392\copy from pc\RF392A003_V01\USER_PROGRAM\USER_PROGRAM.c"
 783  00C2  34B7        	clr [55].1
 783  00C3  34B6        	clr [54].1
 783  00C4  34B5        	clr [53].1
 783  00C5  36B7        	clr [55].5
 783  00C6  36B6        	clr [54].5
 783  00C7  32B5        	set [53].5
 783  00C8  37A2        	clr [34].7
 783  00C9  37A1        	clr [33].7
 783  00CA  37A0        	clr [32].7
 784  00CB              #line 784 "E:\jim\project\A2021\RF392\copy from pc\RF392A003_V01\USER_PROGRAM\USER_PROGRAM.c"
 784  00CB  3400     R  	clr _userflag2[0].7
 785  00CC              #line 785 "E:\jim\project\A2021\RF392\copy from pc\RF392A003_V01\USER_PROGRAM\USER_PROGRAM.c"
 785  00CC  3400     R  	clr _userflag3[0].3
 786  00CD              #line 786 "E:\jim\project\A2021\RF392\copy from pc\RF392A003_V01\USER_PROGRAM\USER_PROGRAM.c"
 786  00CD  3400     R  	clr _userflag3[0].6
 786  00CE              _L76:
 790  00CE              #line 790 "E:\jim\project\A2021\RF392\copy from pc\RF392A003_V01\USER_PROGRAM\USER_PROGRAM.c"
 790  00CE  3800     R  	snz _userflag1[0].7
文件：USER_PROGRAM.c 编译器版本 HGASM 0202 页次15

 790  00CF  2800     R  	jmp _L71
 790  00D0  0F63        	mov a,99
 790  00D1  0200     R  	sub a,_keymachtimer[0]
 790  00D2  0F00        	mov a,0
 790  00D3  1200     R  	sbc a,_keymachtimer[1]
 790  00D4  3C0A        	sz c
 790  00D5  2800     R  	jmp _L71
 792  00D6              #line 792 "E:\jim\project\A2021\RF392\copy from pc\RF392A003_V01\USER_PROGRAM\USER_PROGRAM.c"
 792  00D6  3400     R  	clr _userflag1[0].7
 793  00D7              #line 793 "E:\jim\project\A2021\RF392\copy from pc\RF392A003_V01\USER_PROGRAM\USER_PROGRAM.c"
 793  00D7  340E        	clr [14].0
 794  00D8              #line 794 "E:\jim\project\A2021\RF392\copy from pc\RF392A003_V01\USER_PROGRAM\USER_PROGRAM.c"
 794  00D8  1F00     R  	clr _keymachtimer[0]
 794  00D9  1F00     R  	clr _keymachtimer[1]
 795  00DA              #line 795 "E:\jim\project\A2021\RF392\copy from pc\RF392A003_V01\USER_PROGRAM\USER_PROGRAM.c"
 795  00DA  300E        	set [14].0
 796  00DB              #line 796 "E:\jim\project\A2021\RF392\copy from pc\RF392A003_V01\USER_PROGRAM\USER_PROGRAM.c"
 796  00DB  3400     R  	clr _userflag4[0].4
 797  00DC              #line 797 "E:\jim\project\A2021\RF392\copy from pc\RF392A003_V01\USER_PROGRAM\USER_PROGRAM.c"
 797  00DC  3400     R  	clr _userflag3[0].6
 797  00DD  2800     R  	jmp _L71
 797  00DE              _L73:
 813  00DE              #line 813 "E:\jim\project\A2021\RF392\copy from pc\RF392A003_V01\USER_PROGRAM\USER_PROGRAM.c"
 813  00DE  0F01        	mov a,1
 813  00DF  0080     R  	mov _keysamerepeatflag[0],a
 813  00E0              _L71:
 820  00E0              #line 820 "E:\jim\project\A2021\RF392\copy from pc\RF392A003_V01\USER_PROGRAM\USER_PROGRAM.c"
 820  00E0  3400     R  	clr _userflag1[0].6
 821  00E1              #line 821 "E:\jim\project\A2021\RF392\copy from pc\RF392A003_V01\USER_PROGRAM\USER_PROGRAM.c"
 821  00E1  340E        	clr [14].0
 822  00E2              #line 822 "E:\jim\project\A2021\RF392\copy from pc\RF392A003_V01\USER_PROGRAM\USER_PROGRAM.c"
 822  00E2  1F00     R  	clr _keyonlyrlstxtimer[0]
 823  00E3              #line 823 "E:\jim\project\A2021\RF392\copy from pc\RF392A003_V01\USER_PROGRAM\USER_PROGRAM.c"
 823  00E3  300E        	set [14].0
 824  00E4              #line 824 "E:\jim\project\A2021\RF392\copy from pc\RF392A003_V01\USER_PROGRAM\USER_PROGRAM.c"
 824  00E4  3400     R  	clr _userflag1[0].4
 825  00E5              #line 825 "E:\jim\project\A2021\RF392\copy from pc\RF392A003_V01\USER_PROGRAM\USER_PROGRAM.c"
 825  00E5  3400     R  	clr _userflag3[0].2
 826  00E6              #line 826 "E:\jim\project\A2021\RF392\copy from pc\RF392A003_V01\USER_PROGRAM\USER_PROGRAM.c"
 826  00E6  3400     R  	clr _userflag2[0].4
 827  00E7              #line 827 "E:\jim\project\A2021\RF392\copy from pc\RF392A003_V01\USER_PROGRAM\USER_PROGRAM.c"
 827  00E7  3400     R  	clr _userflag2[0].5
 828  00E8              #line 828 "E:\jim\project\A2021\RF392\copy from pc\RF392A003_V01\USER_PROGRAM\USER_PROGRAM.c"
 828  00E8  3400     R  	clr _userflag2[0].3
 829  00E9              #line 829 "E:\jim\project\A2021\RF392\copy from pc\RF392A003_V01\USER_PROGRAM\USER_PROGRAM.c"
 829  00E9  3400     R  	clr _userflag2[0].6
 830  00EA              #line 830 "E:\jim\project\A2021\RF392\copy from pc\RF392A003_V01\USER_PROGRAM\USER_PROGRAM.c"
 830  00EA  3400     R  	clr _userflag3[0].1
 835  00EB              #line 835 "E:\jim\project\A2021\RF392\copy from pc\RF392A003_V01\USER_PROGRAM\USER_PROGRAM.c"
 835  00EB  3C00     R  	sz _userflag1[0].0
 835  00EC  2800     R  	jmp _L78
 837  00ED              #line 837 "E:\jim\project\A2021\RF392\copy from pc\RF392A003_V01\USER_PROGRAM\USER_PROGRAM.c"
 837  00ED  1F00     R  	clr _keypresstimer[0]
 837  00EE  1F00     R  	clr _keypresstimer[1]
 838  00EF              #line 838 "E:\jim\project\A2021\RF392\copy from pc\RF392A003_V01\USER_PROGRAM\USER_PROGRAM.c"
 838  00EF  3000     R  	set _userflag1[0].0
 838  00F0              _L78:
 845  00F0              #line 845 "E:\jim\project\A2021\RF392\copy from pc\RF392A003_V01\USER_PROGRAM\USER_PROGRAM.c"
 845  00F0  1080     R  	sz _keysamerepeatflag[0]
 845  00F1  2800     R  	jmp _LI1
文件：USER_PROGRAM.c 编译器版本 HGASM 0202 页次16

 845  00F2  2800     R  	jmp _L79
 845  00F3              _LI1:
 847  00F3              #line 847 "E:\jim\project\A2021\RF392\copy from pc\RF392A003_V01\USER_PROGRAM\USER_PROGRAM.c"
 847  00F3  1F00     R  	clr _keysamerepeatflag[0]
 847  00F4              #pragma debug scope 16 15
 847  00F4              ;begin block, line: 847.-1
 847  00F4              #pragma debug scope 17 16
 847  00F4              ;begin block, line: 847.-1
1134  00F4              #line 1134 "E:\jim\project\A2021\RF392\copy from pc\RF392A003_V01\USER_PROGRAM\USER_PROGRAM.c"
1134  00F4  0700     R  	mov a,_keyvalue[0]
1134  00F5  0080     R  	mov _USER_PROGRAM_2[0],a
1134  00F6  0700     R  	mov a,_USER_PROGRAM_2[0]
1134  00F7  0A01        	sub a,1
1134  00F8  3D0A        	sz z
1134  00F9  2800     R  	jmp _L81
1134  00FA  0A01        	sub a,(2)-(1)
1134  00FB  3D0A        	sz z
1134  00FC  2800     R  	jmp _L82
1134  00FD  0700     R  	mov a,_USER_PROGRAM_2[0]
1134  00FE  0A04        	sub a,4
1134  00FF  3D0A        	sz z
1134  0100  2800     R  	jmp _L83
1134  0101  0A04        	sub a,(8)-(4)
1134  0102  3D0A        	sz z
1134  0103  2800     R  	jmp _L84
1134  0104  0700     R  	mov a,_USER_PROGRAM_2[0]
1134  0105  0A10        	sub a,16
1134  0106  3D0A        	sz z
1134  0107  2800     R  	jmp _L85
1134  0108  0A10        	sub a,(32)-(16)
1134  0109  3D0A        	sz z
1134  010A  2800     R  	jmp _L86
1134  010B  0700     R  	mov a,_USER_PROGRAM_2[0]
1134  010C  0A40        	sub a,64
1134  010D  390A        	snz z
1134  010E  2800     R  	jmp _L214
1134  010F  2800     R  	jmp _L220
1134  0110              _L81:
1138  0110              #line 1138 "E:\jim\project\A2021\RF392\copy from pc\RF392A003_V01\USER_PROGRAM\USER_PROGRAM.c"
1138  0110  0F4F        	mov a,79
1138  0111  0200     R  	sub a,_keypresstimer[0]
1138  0112  0F00        	mov a,0
1138  0113  1200     R  	sbc a,_keypresstimer[1]
1138  0114  380A        	snz c
1138  0115  2800     R  	jmp _L88
1140  0116              #line 1140 "E:\jim\project\A2021\RF392\copy from pc\RF392A003_V01\USER_PROGRAM\USER_PROGRAM.c"
1140  0116  3C00     R  	sz _userflag5[0].3
1140  0117  2800     R  	jmp _L89
1142  0118              #line 1142 "E:\jim\project\A2021\RF392\copy from pc\RF392A003_V01\USER_PROGRAM\USER_PROGRAM.c"
1142  0118  3000     R  	set _userflag5[0].3
1143  0119              #line 1143 "E:\jim\project\A2021\RF392\copy from pc\RF392A003_V01\USER_PROGRAM\USER_PROGRAM.c"
1143  0119  3616        	clr [22].4
1143  011A  3615        	clr [21].4
1143  011B  3614        	clr [20].4
1143  011C  3596        	clr [22].3
1143  011D  3595        	clr [21].3
1143  011E  3194        	set [20].3
1143  011F  3516        	clr [22].2
1143  0120  3515        	clr [21].2
1143  0121  3114        	set [20].2
文件：USER_PROGRAM.c 编译器版本 HGASM 0202 页次17

1143  0122  3416        	clr [22].0
1143  0123  3415        	clr [21].0
1143  0124  3014        	set [20].0
1144  0125              #line 1144 "E:\jim\project\A2021\RF392\copy from pc\RF392A003_V01\USER_PROGRAM\USER_PROGRAM.c"
1144  0125  34B7        	clr [55].1
1144  0126  34B6        	clr [54].1
1144  0127  30B5        	set [53].1
1144  0128  36B7        	clr [55].5
1144  0129  36B6        	clr [54].5
1144  012A  32B5        	set [53].5
1144  012B  37A2        	clr [34].7
1144  012C  37A1        	clr [33].7
1144  012D  33A0        	set [32].7
1146  012E              #line 1146 "E:\jim\project\A2021\RF392\copy from pc\RF392A003_V01\USER_PROGRAM\USER_PROGRAM.c"
1146  012E  3000     R  	set _userflag5[0].7
1147  012F              #line 1147 "E:\jim\project\A2021\RF392\copy from pc\RF392A003_V01\USER_PROGRAM\USER_PROGRAM.c"
1147  012F  1F00     R  	clr _keyledidicatetimer[0]
1147  0130  1F00     R  	clr _keyledidicatetimer[1]
1147  0131              _L89:
1149  0131              #line 1149 "E:\jim\project\A2021\RF392\copy from pc\RF392A003_V01\USER_PROGRAM\USER_PROGRAM.c"
1149  0131  3000     R  	set _userflag3[0].2
1150  0132              #line 1150 "E:\jim\project\A2021\RF392\copy from pc\RF392A003_V01\USER_PROGRAM\USER_PROGRAM.c"
1150  0132  3000     R  	set _userflag2[0].7
1152  0133              #line 1152 "E:\jim\project\A2021\RF392\copy from pc\RF392A003_V01\USER_PROGRAM\USER_PROGRAM.c"
1152  0133  0F3E        	mov a,62
1152  0134  0200     R  	sub a,_keypresstimer[0]
1152  0135  0F00        	mov a,0
1152  0136  1200     R  	sbc a,_keypresstimer[1]
1152  0137  3C0A        	sz c
1152  0138  2800     R  	jmp _L90
1154  0139              #line 1154 "E:\jim\project\A2021\RF392\copy from pc\RF392A003_V01\USER_PROGRAM\USER_PROGRAM.c"
1154  0139  2000     R  	call _InitLed
1155  013A              #line 1155 "E:\jim\project\A2021\RF392\copy from pc\RF392A003_V01\USER_PROGRAM\USER_PROGRAM.c"
1155  013A  2000     R  	call _clrflagledtimer
1155  013B              _L90:
1158  013B              #line 1158 "E:\jim\project\A2021\RF392\copy from pc\RF392A003_V01\USER_PROGRAM\USER_PROGRAM.c"
1158  013B  0F03        	mov a,3
1158  013C  0080     E  	mov _rfmsgarry[0],a
1159  013D              #line 1159 "E:\jim\project\A2021\RF392\copy from pc\RF392A003_V01\USER_PROGRAM\USER_PROGRAM.c"
1159  013D  0F50        	mov a,80
1159  013E  0080     E  	mov _rfmsgarry[1],a
1159  013F  2800     R  	jmp _L79
1159  0140              _L88:
1161  0140              #line 1161 "E:\jim\project\A2021\RF392\copy from pc\RF392A003_V01\USER_PROGRAM\USER_PROGRAM.c"
1161  0140  0F8A        	mov a,138
1161  0141  0200     R  	sub a,_keypresstimer[0]
1161  0142  0F02        	mov a,2
1161  0143  1200     R  	sbc a,_keypresstimer[1]
1161  0144  3C0A        	sz c
1161  0145  2800     R  	jmp _L91
1161  0146              _L101:
1163  0146              #line 1163 "E:\jim\project\A2021\RF392\copy from pc\RF392A003_V01\USER_PROGRAM\USER_PROGRAM.c"
1163  0146  2000     R  	call _InitLed
1163  0147  2800     R  	jmp _L79
1163  0148              _L91:
1166  0148              #line 1166 "E:\jim\project\A2021\RF392\copy from pc\RF392A003_V01\USER_PROGRAM\USER_PROGRAM.c"
1166  0148  0F71        	mov a,113
1166  0149  0200     R  	sub a,_keypresstimer[0]
1166  014A  0F02        	mov a,2
1166  014B  1200     R  	sbc a,_keypresstimer[1]
文件：USER_PROGRAM.c 编译器版本 HGASM 0202 页次18

1166  014C  3C0A        	sz c
1166  014D  2800     R  	jmp _L92
1168  014E              #line 1168 "E:\jim\project\A2021\RF392\copy from pc\RF392A003_V01\USER_PROGRAM\USER_PROGRAM.c"
1168  014E  3400     R  	clr _userflag3[0].2
1168  014F  2800     R  	jmp _L218
1168  0150              _L92:
1177  0150              #line 1177 "E:\jim\project\A2021\RF392\copy from pc\RF392A003_V01\USER_PROGRAM\USER_PROGRAM.c"
1177  0150  3400     R  	clr _userflag3[0].2
1178  0151              #line 1178 "E:\jim\project\A2021\RF392\copy from pc\RF392A003_V01\USER_PROGRAM\USER_PROGRAM.c"
1178  0151  3616        	clr [22].4
1178  0152  3615        	clr [21].4
1178  0153  3214        	set [20].4
1178  0154  3596        	clr [22].3
1178  0155  3595        	clr [21].3
1178  0156  3194        	set [20].3
1178  0157  3516        	clr [22].2
1178  0158  3515        	clr [21].2
1178  0159  3114        	set [20].2
1178  015A  3416        	clr [22].0
1178  015B  3415        	clr [21].0
1178  015C  3014        	set [20].0
1179  015D              #line 1179 "E:\jim\project\A2021\RF392\copy from pc\RF392A003_V01\USER_PROGRAM\USER_PROGRAM.c"
1179  015D  34B7        	clr [55].1
1179  015E  34B6        	clr [54].1
1179  015F  30B5        	set [53].1
1179  0160  36B7        	clr [55].5
1179  0161  36B6        	clr [54].5
1179  0162  32B5        	set [53].5
1179  0163  37A2        	clr [34].7
1179  0164  37A1        	clr [33].7
1179  0165  33A0        	set [32].7
1180  0166              #line 1180 "E:\jim\project\A2021\RF392\copy from pc\RF392A003_V01\USER_PROGRAM\USER_PROGRAM.c"
1180  0166  3400     R  	clr _userflag2[0].7
1181  0167              #line 1181 "E:\jim\project\A2021\RF392\copy from pc\RF392A003_V01\USER_PROGRAM\USER_PROGRAM.c"
1181  0167  3400     R  	clr _userflag5[0].3
1181  0168  2800     R  	jmp _L217
1181  0169              _L82:
1187  0169              #line 1187 "E:\jim\project\A2021\RF392\copy from pc\RF392A003_V01\USER_PROGRAM\USER_PROGRAM.c"
1187  0169  0F4F        	mov a,79
1187  016A  0200     R  	sub a,_keypresstimer[0]
1187  016B  0F00        	mov a,0
1187  016C  1200     R  	sbc a,_keypresstimer[1]
1187  016D  380A        	snz c
1187  016E  2800     R  	jmp _L93
1189  016F              #line 1189 "E:\jim\project\A2021\RF392\copy from pc\RF392A003_V01\USER_PROGRAM\USER_PROGRAM.c"
1189  016F  3C00     R  	sz _userflag5[0].5
1189  0170  2800     R  	jmp _L94
1191  0171              #line 1191 "E:\jim\project\A2021\RF392\copy from pc\RF392A003_V01\USER_PROGRAM\USER_PROGRAM.c"
1191  0171  3000     R  	set _userflag5[0].5
1192  0172              #line 1192 "E:\jim\project\A2021\RF392\copy from pc\RF392A003_V01\USER_PROGRAM\USER_PROGRAM.c"
1192  0172  3616        	clr [22].4
1192  0173  3615        	clr [21].4
1192  0174  3214        	set [20].4
1192  0175  3596        	clr [22].3
1192  0176  3595        	clr [21].3
1192  0177  3594        	clr [20].3
1192  0178  3516        	clr [22].2
1192  0179  3515        	clr [21].2
1192  017A  3114        	set [20].2
1192  017B  3416        	clr [22].0
文件：USER_PROGRAM.c 编译器版本 HGASM 0202 页次19

1192  017C  3415        	clr [21].0
1192  017D  3014        	set [20].0
1193  017E              #line 1193 "E:\jim\project\A2021\RF392\copy from pc\RF392A003_V01\USER_PROGRAM\USER_PROGRAM.c"
1193  017E  34B7        	clr [55].1
1193  017F  34B6        	clr [54].1
1193  0180  30B5        	set [53].1
1193  0181  36B7        	clr [55].5
1193  0182  36B6        	clr [54].5
1193  0183  32B5        	set [53].5
1193  0184  37A2        	clr [34].7
1193  0185  37A1        	clr [33].7
1193  0186  33A0        	set [32].7
1194  0187              #line 1194 "E:\jim\project\A2021\RF392\copy from pc\RF392A003_V01\USER_PROGRAM\USER_PROGRAM.c"
1194  0187  3000     R  	set _userflag5[0].7
1195  0188              #line 1195 "E:\jim\project\A2021\RF392\copy from pc\RF392A003_V01\USER_PROGRAM\USER_PROGRAM.c"
1195  0188  1F00     R  	clr _keyledidicatetimer[0]
1195  0189  1F00     R  	clr _keyledidicatetimer[1]
1195  018A              _L94:
1197  018A              #line 1197 "E:\jim\project\A2021\RF392\copy from pc\RF392A003_V01\USER_PROGRAM\USER_PROGRAM.c"
1197  018A  3000     R  	set _userflag2[0].4
1198  018B              #line 1198 "E:\jim\project\A2021\RF392\copy from pc\RF392A003_V01\USER_PROGRAM\USER_PROGRAM.c"
1198  018B  3000     R  	set _userflag2[0].7
1200  018C              #line 1200 "E:\jim\project\A2021\RF392\copy from pc\RF392A003_V01\USER_PROGRAM\USER_PROGRAM.c"
1200  018C  0F3E        	mov a,62
1200  018D  0200     R  	sub a,_keypresstimer[0]
1200  018E  0F00        	mov a,0
1200  018F  1200     R  	sbc a,_keypresstimer[1]
1200  0190  3C0A        	sz c
1200  0191  2800     R  	jmp _L95
1202  0192              #line 1202 "E:\jim\project\A2021\RF392\copy from pc\RF392A003_V01\USER_PROGRAM\USER_PROGRAM.c"
1202  0192  2000     R  	call _InitLed
1202  0193              _L95:
1204  0193              #line 1204 "E:\jim\project\A2021\RF392\copy from pc\RF392A003_V01\USER_PROGRAM\USER_PROGRAM.c"
1204  0193  0F03        	mov a,3
1204  0194  0080     E  	mov _rfmsgarry[0],a
1205  0195              #line 1205 "E:\jim\project\A2021\RF392\copy from pc\RF392A003_V01\USER_PROGRAM\USER_PROGRAM.c"
1205  0195  0F5A        	mov a,90
1205  0196  0080     E  	mov _rfmsgarry[1],a
1205  0197  2800     R  	jmp _L79
1205  0198              _L93:
1207  0198              #line 1207 "E:\jim\project\A2021\RF392\copy from pc\RF392A003_V01\USER_PROGRAM\USER_PROGRAM.c"
1207  0198  0F8A        	mov a,138
1207  0199  0200     R  	sub a,_keypresstimer[0]
1207  019A  0F02        	mov a,2
1207  019B  1200     R  	sbc a,_keypresstimer[1]
1207  019C  3C0A        	sz c
1207  019D  2800     R  	jmp _L96
1209  019E              #line 1209 "E:\jim\project\A2021\RF392\copy from pc\RF392A003_V01\USER_PROGRAM\USER_PROGRAM.c"
1209  019E  2000     R  	call _InitLed
1209  019F  2800     R  	jmp _L217
1209  01A0              _L96:
1212  01A0              #line 1212 "E:\jim\project\A2021\RF392\copy from pc\RF392A003_V01\USER_PROGRAM\USER_PROGRAM.c"
1212  01A0  0F71        	mov a,113
1212  01A1  0200     R  	sub a,_keypresstimer[0]
1212  01A2  0F02        	mov a,2
1212  01A3  1200     R  	sbc a,_keypresstimer[1]
1212  01A4  3C0A        	sz c
1212  01A5  2800     R  	jmp _L97
1214  01A6              #line 1214 "E:\jim\project\A2021\RF392\copy from pc\RF392A003_V01\USER_PROGRAM\USER_PROGRAM.c"
1214  01A6  3400     R  	clr _userflag2[0].7
文件：USER_PROGRAM.c 编译器版本 HGASM 0202 页次20

1215  01A7              #line 1215 "E:\jim\project\A2021\RF392\copy from pc\RF392A003_V01\USER_PROGRAM\USER_PROGRAM.c"
1215  01A7  3400     R  	clr _userflag2[0].4
1215  01A8  2800     R  	jmp _L216
1215  01A9              _L97:
1221  01A9              #line 1221 "E:\jim\project\A2021\RF392\copy from pc\RF392A003_V01\USER_PROGRAM\USER_PROGRAM.c"
1221  01A9  3616        	clr [22].4
1221  01AA  3615        	clr [21].4
1221  01AB  3214        	set [20].4
1221  01AC  3596        	clr [22].3
1221  01AD  3595        	clr [21].3
1221  01AE  3194        	set [20].3
1221  01AF  3516        	clr [22].2
1221  01B0  3515        	clr [21].2
1221  01B1  3114        	set [20].2
1221  01B2  3416        	clr [22].0
1221  01B3  3415        	clr [21].0
1221  01B4  3014        	set [20].0
1222  01B5              #line 1222 "E:\jim\project\A2021\RF392\copy from pc\RF392A003_V01\USER_PROGRAM\USER_PROGRAM.c"
1222  01B5  34B7        	clr [55].1
1222  01B6  34B6        	clr [54].1
1222  01B7  30B5        	set [53].1
1222  01B8  36B7        	clr [55].5
1222  01B9  36B6        	clr [54].5
1222  01BA  32B5        	set [53].5
1222  01BB  37A2        	clr [34].7
1222  01BC  37A1        	clr [33].7
1222  01BD  33A0        	set [32].7
1223  01BE              #line 1223 "E:\jim\project\A2021\RF392\copy from pc\RF392A003_V01\USER_PROGRAM\USER_PROGRAM.c"
1223  01BE  3400     R  	clr _userflag2[0].4
1224  01BF              #line 1224 "E:\jim\project\A2021\RF392\copy from pc\RF392A003_V01\USER_PROGRAM\USER_PROGRAM.c"
1224  01BF  3400     R  	clr _userflag2[0].7
1225  01C0              #line 1225 "E:\jim\project\A2021\RF392\copy from pc\RF392A003_V01\USER_PROGRAM\USER_PROGRAM.c"
1225  01C0  3400     R  	clr _userflag5[0].5
1225  01C1  2800     R  	jmp _L217
1225  01C2              _L83:
1230  01C2              #line 1230 "E:\jim\project\A2021\RF392\copy from pc\RF392A003_V01\USER_PROGRAM\USER_PROGRAM.c"
1230  01C2  0F4F        	mov a,79
1230  01C3  0200     R  	sub a,_keypresstimer[0]
1230  01C4  0F00        	mov a,0
1230  01C5  1200     R  	sbc a,_keypresstimer[1]
1230  01C6  380A        	snz c
1230  01C7  2800     R  	jmp _L98
1232  01C8              #line 1232 "E:\jim\project\A2021\RF392\copy from pc\RF392A003_V01\USER_PROGRAM\USER_PROGRAM.c"
1232  01C8  3C00     R  	sz _userflag5[0].4
1232  01C9  2800     R  	jmp _L99
1234  01CA              #line 1234 "E:\jim\project\A2021\RF392\copy from pc\RF392A003_V01\USER_PROGRAM\USER_PROGRAM.c"
1234  01CA  3000     R  	set _userflag5[0].4
1235  01CB              #line 1235 "E:\jim\project\A2021\RF392\copy from pc\RF392A003_V01\USER_PROGRAM\USER_PROGRAM.c"
1235  01CB  3616        	clr [22].4
1235  01CC  3615        	clr [21].4
1235  01CD  3214        	set [20].4
1235  01CE  3596        	clr [22].3
1235  01CF  3595        	clr [21].3
1235  01D0  3194        	set [20].3
1235  01D1  3516        	clr [22].2
1235  01D2  3515        	clr [21].2
1235  01D3  3514        	clr [20].2
1235  01D4  3416        	clr [22].0
1235  01D5  3415        	clr [21].0
1235  01D6  3014        	set [20].0
文件：USER_PROGRAM.c 编译器版本 HGASM 0202 页次21

1236  01D7              #line 1236 "E:\jim\project\A2021\RF392\copy from pc\RF392A003_V01\USER_PROGRAM\USER_PROGRAM.c"
1236  01D7  34B7        	clr [55].1
1236  01D8  34B6        	clr [54].1
1236  01D9  30B5        	set [53].1
1236  01DA  36B7        	clr [55].5
1236  01DB  36B6        	clr [54].5
1236  01DC  32B5        	set [53].5
1236  01DD  37A2        	clr [34].7
1236  01DE  37A1        	clr [33].7
1236  01DF  33A0        	set [32].7
1237  01E0              #line 1237 "E:\jim\project\A2021\RF392\copy from pc\RF392A003_V01\USER_PROGRAM\USER_PROGRAM.c"
1237  01E0  3000     R  	set _userflag5[0].7
1238  01E1              #line 1238 "E:\jim\project\A2021\RF392\copy from pc\RF392A003_V01\USER_PROGRAM\USER_PROGRAM.c"
1238  01E1  1F00     R  	clr _keyledidicatetimer[0]
1238  01E2  1F00     R  	clr _keyledidicatetimer[1]
1238  01E3              _L99:
1240  01E3              #line 1240 "E:\jim\project\A2021\RF392\copy from pc\RF392A003_V01\USER_PROGRAM\USER_PROGRAM.c"
1240  01E3  3000     R  	set _userflag2[0].6
1241  01E4              #line 1241 "E:\jim\project\A2021\RF392\copy from pc\RF392A003_V01\USER_PROGRAM\USER_PROGRAM.c"
1241  01E4  3000     R  	set _userflag2[0].7
1243  01E5              #line 1243 "E:\jim\project\A2021\RF392\copy from pc\RF392A003_V01\USER_PROGRAM\USER_PROGRAM.c"
1243  01E5  0F3E        	mov a,62
1243  01E6  0200     R  	sub a,_keypresstimer[0]
1243  01E7  0F00        	mov a,0
1243  01E8  1200     R  	sbc a,_keypresstimer[1]
1243  01E9  3C0A        	sz c
1243  01EA  2800     R  	jmp _L100
1245  01EB              #line 1245 "E:\jim\project\A2021\RF392\copy from pc\RF392A003_V01\USER_PROGRAM\USER_PROGRAM.c"
1245  01EB  2000     R  	call _InitLed
1246  01EC              #line 1246 "E:\jim\project\A2021\RF392\copy from pc\RF392A003_V01\USER_PROGRAM\USER_PROGRAM.c"
1246  01EC  2000     R  	call _clrflagledtimer
1246  01ED              _L100:
1248  01ED              #line 1248 "E:\jim\project\A2021\RF392\copy from pc\RF392A003_V01\USER_PROGRAM\USER_PROGRAM.c"
1248  01ED  0F03        	mov a,3
1248  01EE  0080     E  	mov _rfmsgarry[0],a
1249  01EF              #line 1249 "E:\jim\project\A2021\RF392\copy from pc\RF392A003_V01\USER_PROGRAM\USER_PROGRAM.c"
1249  01EF  0F90        	mov a,144
1249  01F0  0080     E  	mov _rfmsgarry[1],a
1249  01F1  2800     R  	jmp _L79
1249  01F2              _L98:
1251  01F2              #line 1251 "E:\jim\project\A2021\RF392\copy from pc\RF392A003_V01\USER_PROGRAM\USER_PROGRAM.c"
1251  01F2  0F8A        	mov a,138
1251  01F3  0200     R  	sub a,_keypresstimer[0]
1251  01F4  0F02        	mov a,2
1251  01F5  1200     R  	sbc a,_keypresstimer[1]
1251  01F6  380A        	snz c
1251  01F7  2800     R  	jmp _L101
1256  01F8              #line 1256 "E:\jim\project\A2021\RF392\copy from pc\RF392A003_V01\USER_PROGRAM\USER_PROGRAM.c"
1256  01F8  0F71        	mov a,113
1256  01F9  0200     R  	sub a,_keypresstimer[0]
1256  01FA  0F02        	mov a,2
1256  01FB  1200     R  	sbc a,_keypresstimer[1]
1256  01FC  3C0A        	sz c
1256  01FD  2800     R  	jmp _L102
1258  01FE              #line 1258 "E:\jim\project\A2021\RF392\copy from pc\RF392A003_V01\USER_PROGRAM\USER_PROGRAM.c"
1258  01FE  3400     R  	clr _userflag2[0].6
1258  01FF  2800     R  	jmp _L218
1258  0200              _L102:
1266  0200              #line 1266 "E:\jim\project\A2021\RF392\copy from pc\RF392A003_V01\USER_PROGRAM\USER_PROGRAM.c"
1266  0200  3616        	clr [22].4
文件：USER_PROGRAM.c 编译器版本 HGASM 0202 页次22

1266  0201  3615        	clr [21].4
1266  0202  3214        	set [20].4
1266  0203  3596        	clr [22].3
1266  0204  3595        	clr [21].3
1266  0205  3194        	set [20].3
1266  0206  3516        	clr [22].2
1266  0207  3515        	clr [21].2
1266  0208  3114        	set [20].2
1266  0209  3416        	clr [22].0
1266  020A  3415        	clr [21].0
1266  020B  3014        	set [20].0
1267  020C              #line 1267 "E:\jim\project\A2021\RF392\copy from pc\RF392A003_V01\USER_PROGRAM\USER_PROGRAM.c"
1267  020C  34B7        	clr [55].1
1267  020D  34B6        	clr [54].1
1267  020E  30B5        	set [53].1
1267  020F  36B7        	clr [55].5
1267  0210  36B6        	clr [54].5
1267  0211  32B5        	set [53].5
1267  0212  37A2        	clr [34].7
1267  0213  37A1        	clr [33].7
1267  0214  33A0        	set [32].7
1268  0215              #line 1268 "E:\jim\project\A2021\RF392\copy from pc\RF392A003_V01\USER_PROGRAM\USER_PROGRAM.c"
1268  0215  3400     R  	clr _userflag2[0].6
1269  0216              #line 1269 "E:\jim\project\A2021\RF392\copy from pc\RF392A003_V01\USER_PROGRAM\USER_PROGRAM.c"
1269  0216  3400     R  	clr _userflag2[0].7
1270  0217              #line 1270 "E:\jim\project\A2021\RF392\copy from pc\RF392A003_V01\USER_PROGRAM\USER_PROGRAM.c"
1270  0217  3400     R  	clr _userflag5[0].4
1270  0218  2800     R  	jmp _L217
1270  0219              _L84:
1276  0219              #line 1276 "E:\jim\project\A2021\RF392\copy from pc\RF392A003_V01\USER_PROGRAM\USER_PROGRAM.c"
1276  0219  0F4F        	mov a,79
1276  021A  0200     R  	sub a,_keypresstimer[0]
1276  021B  0F00        	mov a,0
1276  021C  1200     R  	sbc a,_keypresstimer[1]
1276  021D  380A        	snz c
1276  021E  2800     R  	jmp _L103
1278  021F              #line 1278 "E:\jim\project\A2021\RF392\copy from pc\RF392A003_V01\USER_PROGRAM\USER_PROGRAM.c"
1278  021F  3C00     R  	sz _userflag5[0].6
1278  0220  2800     R  	jmp _L104
1280  0221              #line 1280 "E:\jim\project\A2021\RF392\copy from pc\RF392A003_V01\USER_PROGRAM\USER_PROGRAM.c"
1280  0221  3000     R  	set _userflag5[0].6
1281  0222              #line 1281 "E:\jim\project\A2021\RF392\copy from pc\RF392A003_V01\USER_PROGRAM\USER_PROGRAM.c"
1281  0222  3616        	clr [22].4
1281  0223  3615        	clr [21].4
1281  0224  3214        	set [20].4
1281  0225  3596        	clr [22].3
1281  0226  3595        	clr [21].3
1281  0227  3194        	set [20].3
1281  0228  3516        	clr [22].2
1281  0229  3515        	clr [21].2
1281  022A  3114        	set [20].2
1281  022B  3416        	clr [22].0
1281  022C  3415        	clr [21].0
1281  022D  3414        	clr [20].0
1282  022E              #line 1282 "E:\jim\project\A2021\RF392\copy from pc\RF392A003_V01\USER_PROGRAM\USER_PROGRAM.c"
1282  022E  34B7        	clr [55].1
1282  022F  34B6        	clr [54].1
1282  0230  30B5        	set [53].1
1282  0231  36B7        	clr [55].5
1282  0232  36B6        	clr [54].5
文件：USER_PROGRAM.c 编译器版本 HGASM 0202 页次23

1282  0233  32B5        	set [53].5
1282  0234  37A2        	clr [34].7
1282  0235  37A1        	clr [33].7
1282  0236  33A0        	set [32].7
1283  0237              #line 1283 "E:\jim\project\A2021\RF392\copy from pc\RF392A003_V01\USER_PROGRAM\USER_PROGRAM.c"
1283  0237  3000     R  	set _userflag5[0].7
1284  0238              #line 1284 "E:\jim\project\A2021\RF392\copy from pc\RF392A003_V01\USER_PROGRAM\USER_PROGRAM.c"
1284  0238  1F00     R  	clr _keyledidicatetimer[0]
1284  0239  1F00     R  	clr _keyledidicatetimer[1]
1284  023A              _L104:
1288  023A              #line 1288 "E:\jim\project\A2021\RF392\copy from pc\RF392A003_V01\USER_PROGRAM\USER_PROGRAM.c"
1288  023A  3000     R  	set _userflag1[0].4
1289  023B              #line 1289 "E:\jim\project\A2021\RF392\copy from pc\RF392A003_V01\USER_PROGRAM\USER_PROGRAM.c"
1289  023B  3000     R  	set _userflag2[0].7
1302  023C              #line 1302 "E:\jim\project\A2021\RF392\copy from pc\RF392A003_V01\USER_PROGRAM\USER_PROGRAM.c"
1302  023C  0F3E        	mov a,62
1302  023D  0200     R  	sub a,_keypresstimer[0]
1302  023E  0F00        	mov a,0
1302  023F  1200     R  	sbc a,_keypresstimer[1]
1302  0240  3C0A        	sz c
1302  0241  2800     R  	jmp _L105
1304  0242              #line 1304 "E:\jim\project\A2021\RF392\copy from pc\RF392A003_V01\USER_PROGRAM\USER_PROGRAM.c"
1304  0242  2000     R  	call _InitLed
1305  0243              #line 1305 "E:\jim\project\A2021\RF392\copy from pc\RF392A003_V01\USER_PROGRAM\USER_PROGRAM.c"
1305  0243  2000     R  	call _clrflagledtimer
1305  0244              _L105:
1307  0244              #line 1307 "E:\jim\project\A2021\RF392\copy from pc\RF392A003_V01\USER_PROGRAM\USER_PROGRAM.c"
1307  0244  0F03        	mov a,3
1307  0245  0080     E  	mov _rfmsgarry[0],a
1308  0246              #line 1308 "E:\jim\project\A2021\RF392\copy from pc\RF392A003_V01\USER_PROGRAM\USER_PROGRAM.c"
1308  0246  0F39        	mov a,57
1308  0247  0080     E  	mov _rfmsgarry[1],a
1308  0248  2800     R  	jmp _L79
1308  0249              _L103:
1316  0249              #line 1316 "E:\jim\project\A2021\RF392\copy from pc\RF392A003_V01\USER_PROGRAM\USER_PROGRAM.c"
1316  0249  0F8A        	mov a,138
1316  024A  0200     R  	sub a,_keypresstimer[0]
1316  024B  0F02        	mov a,2
1316  024C  1200     R  	sbc a,_keypresstimer[1]
1316  024D  380A        	snz c
1316  024E  2800     R  	jmp _L101
1325  024F              #line 1325 "E:\jim\project\A2021\RF392\copy from pc\RF392A003_V01\USER_PROGRAM\USER_PROGRAM.c"
1325  024F  0F71        	mov a,113
1325  0250  0200     R  	sub a,_keypresstimer[0]
1325  0251  0F02        	mov a,2
1325  0252  1200     R  	sbc a,_keypresstimer[1]
1325  0253  3C0A        	sz c
1325  0254  2800     R  	jmp _L106
1333  0255              #line 1333 "E:\jim\project\A2021\RF392\copy from pc\RF392A003_V01\USER_PROGRAM\USER_PROGRAM.c"
1333  0255  3400     R  	clr _userflag1[0].4
1333  0256              _L218:
1334  0256              #line 1334 "E:\jim\project\A2021\RF392\copy from pc\RF392A003_V01\USER_PROGRAM\USER_PROGRAM.c"
1334  0256  3400     R  	clr _userflag2[0].7
1334  0257  2800     R  	jmp _L216
1334  0258              _L106:
1341  0258              #line 1341 "E:\jim\project\A2021\RF392\copy from pc\RF392A003_V01\USER_PROGRAM\USER_PROGRAM.c"
1341  0258  3616        	clr [22].4
1341  0259  3615        	clr [21].4
1341  025A  3214        	set [20].4
1341  025B  3596        	clr [22].3
文件：USER_PROGRAM.c 编译器版本 HGASM 0202 页次24

1341  025C  3595        	clr [21].3
1341  025D  3194        	set [20].3
1341  025E  3516        	clr [22].2
1341  025F  3515        	clr [21].2
1341  0260  3114        	set [20].2
1341  0261  3416        	clr [22].0
1341  0262  3415        	clr [21].0
1341  0263  3014        	set [20].0
1342  0264              #line 1342 "E:\jim\project\A2021\RF392\copy from pc\RF392A003_V01\USER_PROGRAM\USER_PROGRAM.c"
1342  0264  34B7        	clr [55].1
1342  0265  34B6        	clr [54].1
1342  0266  30B5        	set [53].1
1342  0267  36B7        	clr [55].5
1342  0268  36B6        	clr [54].5
1342  0269  32B5        	set [53].5
1342  026A  37A2        	clr [34].7
1342  026B  37A1        	clr [33].7
1342  026C  33A0        	set [32].7
1343  026D              #line 1343 "E:\jim\project\A2021\RF392\copy from pc\RF392A003_V01\USER_PROGRAM\USER_PROGRAM.c"
1343  026D  3400     R  	clr _userflag1[0].4
1344  026E              #line 1344 "E:\jim\project\A2021\RF392\copy from pc\RF392A003_V01\USER_PROGRAM\USER_PROGRAM.c"
1344  026E  3400     R  	clr _userflag2[0].7
1345  026F              #line 1345 "E:\jim\project\A2021\RF392\copy from pc\RF392A003_V01\USER_PROGRAM\USER_PROGRAM.c"
1345  026F  3400     R  	clr _userflag5[0].6
1345  0270  2800     R  	jmp _L217
1345  0271              _L85:
1354  0271              #line 1354 "E:\jim\project\A2021\RF392\copy from pc\RF392A003_V01\USER_PROGRAM\USER_PROGRAM.c"
1354  0271  0F4F        	mov a,79
1354  0272  0200     R  	sub a,_keypresstimer[0]
1354  0273  0F00        	mov a,0
1354  0274  1200     R  	sbc a,_keypresstimer[1]
1354  0275  380A        	snz c
1354  0276  2800     R  	jmp _L107
1356  0277              #line 1356 "E:\jim\project\A2021\RF392\copy from pc\RF392A003_V01\USER_PROGRAM\USER_PROGRAM.c"
1356  0277  3C00     R  	sz _userflag5[0].1
1356  0278  2800     R  	jmp _L108
1358  0279              #line 1358 "E:\jim\project\A2021\RF392\copy from pc\RF392A003_V01\USER_PROGRAM\USER_PROGRAM.c"
1358  0279  3000     R  	set _userflag5[0].1
1359  027A              #line 1359 "E:\jim\project\A2021\RF392\copy from pc\RF392A003_V01\USER_PROGRAM\USER_PROGRAM.c"
1359  027A  3616        	clr [22].4
1359  027B  3615        	clr [21].4
1359  027C  3214        	set [20].4
1359  027D  3596        	clr [22].3
1359  027E  3595        	clr [21].3
1359  027F  3194        	set [20].3
1359  0280  3516        	clr [22].2
1359  0281  3515        	clr [21].2
1359  0282  3114        	set [20].2
1360  0283              #line 1360 "E:\jim\project\A2021\RF392\copy from pc\RF392A003_V01\USER_PROGRAM\USER_PROGRAM.c"
1360  0283  3416        	clr [22].0
1360  0284  3415        	clr [21].0
1360  0285  3014        	set [20].0
1360  0286  34B7        	clr [55].1
1360  0287  34B6        	clr [54].1
1360  0288  34B5        	clr [53].1
1360  0289  36B7        	clr [55].5
1360  028A  36B6        	clr [54].5
1360  028B  32B5        	set [53].5
1360  028C  37A2        	clr [34].7
1360  028D  37A1        	clr [33].7
文件：USER_PROGRAM.c 编译器版本 HGASM 0202 页次25

1360  028E  33A0        	set [32].7
1361  028F              #line 1361 "E:\jim\project\A2021\RF392\copy from pc\RF392A003_V01\USER_PROGRAM\USER_PROGRAM.c"
1361  028F  3000     R  	set _userflag5[0].7
1362  0290              #line 1362 "E:\jim\project\A2021\RF392\copy from pc\RF392A003_V01\USER_PROGRAM\USER_PROGRAM.c"
1362  0290  1F00     R  	clr _keyledidicatetimer[0]
1362  0291  1F00     R  	clr _keyledidicatetimer[1]
1362  0292              _L108:
1364  0292              #line 1364 "E:\jim\project\A2021\RF392\copy from pc\RF392A003_V01\USER_PROGRAM\USER_PROGRAM.c"
1364  0292  3000     R  	set _userflag3[0].1
1365  0293              #line 1365 "E:\jim\project\A2021\RF392\copy from pc\RF392A003_V01\USER_PROGRAM\USER_PROGRAM.c"
1365  0293  3000     R  	set _userflag2[0].7
1367  0294              #line 1367 "E:\jim\project\A2021\RF392\copy from pc\RF392A003_V01\USER_PROGRAM\USER_PROGRAM.c"
1367  0294  0F3E        	mov a,62
1367  0295  0200     R  	sub a,_keypresstimer[0]
1367  0296  0F00        	mov a,0
1367  0297  1200     R  	sbc a,_keypresstimer[1]
1367  0298  3C0A        	sz c
1367  0299  2800     R  	jmp _L109
1369  029A              #line 1369 "E:\jim\project\A2021\RF392\copy from pc\RF392A003_V01\USER_PROGRAM\USER_PROGRAM.c"
1369  029A  2000     R  	call _InitLed
1370  029B              #line 1370 "E:\jim\project\A2021\RF392\copy from pc\RF392A003_V01\USER_PROGRAM\USER_PROGRAM.c"
1370  029B  2000     R  	call _clrflagledtimer
1370  029C              _L109:
1372  029C              #line 1372 "E:\jim\project\A2021\RF392\copy from pc\RF392A003_V01\USER_PROGRAM\USER_PROGRAM.c"
1372  029C  0F03        	mov a,3
1372  029D  0080     E  	mov _rfmsgarry[0],a
1373  029E              #line 1373 "E:\jim\project\A2021\RF392\copy from pc\RF392A003_V01\USER_PROGRAM\USER_PROGRAM.c"
1373  029E  0F3F        	mov a,63
1373  029F  0080     E  	mov _rfmsgarry[1],a
1373  02A0  2800     R  	jmp _L79
1373  02A1              _L107:
1375  02A1              #line 1375 "E:\jim\project\A2021\RF392\copy from pc\RF392A003_V01\USER_PROGRAM\USER_PROGRAM.c"
1375  02A1  0F8A        	mov a,138
1375  02A2  0200     R  	sub a,_keypresstimer[0]
1375  02A3  0F02        	mov a,2
1375  02A4  1200     R  	sbc a,_keypresstimer[1]
1375  02A5  380A        	snz c
1375  02A6  2800     R  	jmp _L101
1380  02A7              #line 1380 "E:\jim\project\A2021\RF392\copy from pc\RF392A003_V01\USER_PROGRAM\USER_PROGRAM.c"
1380  02A7  0F71        	mov a,113
1380  02A8  0200     R  	sub a,_keypresstimer[0]
1380  02A9  0F02        	mov a,2
1380  02AA  1200     R  	sbc a,_keypresstimer[1]
1380  02AB  3C0A        	sz c
1380  02AC  2800     R  	jmp _L110
1382  02AD              #line 1382 "E:\jim\project\A2021\RF392\copy from pc\RF392A003_V01\USER_PROGRAM\USER_PROGRAM.c"
1382  02AD  3400     R  	clr _userflag3[0].1
1382  02AE  2800     R  	jmp _L218
1382  02AF              _L110:
1389  02AF              #line 1389 "E:\jim\project\A2021\RF392\copy from pc\RF392A003_V01\USER_PROGRAM\USER_PROGRAM.c"
1389  02AF  3616        	clr [22].4
1389  02B0  3615        	clr [21].4
1389  02B1  3214        	set [20].4
1389  02B2  3596        	clr [22].3
1389  02B3  3595        	clr [21].3
1389  02B4  3194        	set [20].3
1389  02B5  3516        	clr [22].2
1389  02B6  3515        	clr [21].2
1389  02B7  3114        	set [20].2
1389  02B8  3416        	clr [22].0
文件：USER_PROGRAM.c 编译器版本 HGASM 0202 页次26

1389  02B9  3415        	clr [21].0
1389  02BA  3014        	set [20].0
1390  02BB              #line 1390 "E:\jim\project\A2021\RF392\copy from pc\RF392A003_V01\USER_PROGRAM\USER_PROGRAM.c"
1390  02BB  34B7        	clr [55].1
1390  02BC  34B6        	clr [54].1
1390  02BD  30B5        	set [53].1
1390  02BE  36B7        	clr [55].5
1390  02BF  36B6        	clr [54].5
1390  02C0  32B5        	set [53].5
1390  02C1  37A2        	clr [34].7
1390  02C2  37A1        	clr [33].7
1390  02C3  33A0        	set [32].7
1391  02C4              #line 1391 "E:\jim\project\A2021\RF392\copy from pc\RF392A003_V01\USER_PROGRAM\USER_PROGRAM.c"
1391  02C4  3400     R  	clr _userflag3[0].1
1392  02C5              #line 1392 "E:\jim\project\A2021\RF392\copy from pc\RF392A003_V01\USER_PROGRAM\USER_PROGRAM.c"
1392  02C5  3400     R  	clr _userflag2[0].7
1393  02C6              #line 1393 "E:\jim\project\A2021\RF392\copy from pc\RF392A003_V01\USER_PROGRAM\USER_PROGRAM.c"
1393  02C6  3400     R  	clr _userflag5[0].1
1393  02C7  2800     R  	jmp _L217
1393  02C8              _L86:
1398  02C8              #line 1398 "E:\jim\project\A2021\RF392\copy from pc\RF392A003_V01\USER_PROGRAM\USER_PROGRAM.c"
1398  02C8  0F4F        	mov a,79
1398  02C9  0200     R  	sub a,_keypresstimer[0]
1398  02CA  0F00        	mov a,0
1398  02CB  1200     R  	sbc a,_keypresstimer[1]
1398  02CC  380A        	snz c
1398  02CD  2800     R  	jmp _L111
1400  02CE              #line 1400 "E:\jim\project\A2021\RF392\copy from pc\RF392A003_V01\USER_PROGRAM\USER_PROGRAM.c"
1400  02CE  3C00     R  	sz _userflag5[0].2
1400  02CF  2800     R  	jmp _L112
1402  02D0              #line 1402 "E:\jim\project\A2021\RF392\copy from pc\RF392A003_V01\USER_PROGRAM\USER_PROGRAM.c"
1402  02D0  3000     R  	set _userflag5[0].2
1403  02D1              #line 1403 "E:\jim\project\A2021\RF392\copy from pc\RF392A003_V01\USER_PROGRAM\USER_PROGRAM.c"
1403  02D1  3616        	clr [22].4
1403  02D2  3615        	clr [21].4
1403  02D3  3214        	set [20].4
1403  02D4  3596        	clr [22].3
1403  02D5  3595        	clr [21].3
1403  02D6  3194        	set [20].3
1403  02D7  3516        	clr [22].2
1403  02D8  3515        	clr [21].2
1403  02D9  3114        	set [20].2
1403  02DA  3416        	clr [22].0
1403  02DB  3415        	clr [21].0
1403  02DC  3014        	set [20].0
1404  02DD              #line 1404 "E:\jim\project\A2021\RF392\copy from pc\RF392A003_V01\USER_PROGRAM\USER_PROGRAM.c"
1404  02DD  34B7        	clr [55].1
1404  02DE  34B6        	clr [54].1
1404  02DF  30B5        	set [53].1
1404  02E0  36B7        	clr [55].5
1404  02E1  36B6        	clr [54].5
1404  02E2  36B5        	clr [53].5
1404  02E3  37A2        	clr [34].7
1404  02E4  37A1        	clr [33].7
1404  02E5  33A0        	set [32].7
1405  02E6              #line 1405 "E:\jim\project\A2021\RF392\copy from pc\RF392A003_V01\USER_PROGRAM\USER_PROGRAM.c"
1405  02E6  3000     R  	set _userflag5[0].7
1406  02E7              #line 1406 "E:\jim\project\A2021\RF392\copy from pc\RF392A003_V01\USER_PROGRAM\USER_PROGRAM.c"
1406  02E7  1F00     R  	clr _keyledidicatetimer[0]
1406  02E8  1F00     R  	clr _keyledidicatetimer[1]
文件：USER_PROGRAM.c 编译器版本 HGASM 0202 页次27

1406  02E9              _L112:
1408  02E9              #line 1408 "E:\jim\project\A2021\RF392\copy from pc\RF392A003_V01\USER_PROGRAM\USER_PROGRAM.c"
1408  02E9  3000     R  	set _userflag2[0].5
1409  02EA              #line 1409 "E:\jim\project\A2021\RF392\copy from pc\RF392A003_V01\USER_PROGRAM\USER_PROGRAM.c"
1409  02EA  3000     R  	set _userflag2[0].7
1411  02EB              #line 1411 "E:\jim\project\A2021\RF392\copy from pc\RF392A003_V01\USER_PROGRAM\USER_PROGRAM.c"
1411  02EB  0F3E        	mov a,62
1411  02EC  0200     R  	sub a,_keypresstimer[0]
1411  02ED  0F00        	mov a,0
1411  02EE  1200     R  	sbc a,_keypresstimer[1]
1411  02EF  3C0A        	sz c
1411  02F0  2800     R  	jmp _L113
1413  02F1              #line 1413 "E:\jim\project\A2021\RF392\copy from pc\RF392A003_V01\USER_PROGRAM\USER_PROGRAM.c"
1413  02F1  2000     R  	call _InitLed
1414  02F2              #line 1414 "E:\jim\project\A2021\RF392\copy from pc\RF392A003_V01\USER_PROGRAM\USER_PROGRAM.c"
1414  02F2  2000     R  	call _clrflagledtimer
1414  02F3              _L113:
1416  02F3              #line 1416 "E:\jim\project\A2021\RF392\copy from pc\RF392A003_V01\USER_PROGRAM\USER_PROGRAM.c"
1416  02F3  0F03        	mov a,3
1416  02F4  0080     E  	mov _rfmsgarry[0],a
1417  02F5              #line 1417 "E:\jim\project\A2021\RF392\copy from pc\RF392A003_V01\USER_PROGRAM\USER_PROGRAM.c"
1417  02F5  0F3B        	mov a,59
1417  02F6  0080     E  	mov _rfmsgarry[1],a
1417  02F7  2800     R  	jmp _L79
1417  02F8              _L111:
1419  02F8              #line 1419 "E:\jim\project\A2021\RF392\copy from pc\RF392A003_V01\USER_PROGRAM\USER_PROGRAM.c"
1419  02F8  0F8A        	mov a,138
1419  02F9  0200     R  	sub a,_keypresstimer[0]
1419  02FA  0F02        	mov a,2
1419  02FB  1200     R  	sbc a,_keypresstimer[1]
1419  02FC  380A        	snz c
1419  02FD  2800     R  	jmp _L101
1424  02FE              #line 1424 "E:\jim\project\A2021\RF392\copy from pc\RF392A003_V01\USER_PROGRAM\USER_PROGRAM.c"
1424  02FE  0F71        	mov a,113
1424  02FF  0200     R  	sub a,_keypresstimer[0]
1424  0300  0F02        	mov a,2
1424  0301  1200     R  	sbc a,_keypresstimer[1]
1424  0302  380A        	snz c
1424  0303  2800     R  	jmp _L216
1431  0304              #line 1431 "E:\jim\project\A2021\RF392\copy from pc\RF392A003_V01\USER_PROGRAM\USER_PROGRAM.c"
1431  0304  3616        	clr [22].4
1431  0305  3615        	clr [21].4
1431  0306  3214        	set [20].4
1431  0307  3596        	clr [22].3
1431  0308  3595        	clr [21].3
1431  0309  3194        	set [20].3
1431  030A  3516        	clr [22].2
1431  030B  3515        	clr [21].2
1431  030C  3114        	set [20].2
1431  030D  3416        	clr [22].0
1431  030E  3415        	clr [21].0
1431  030F  3014        	set [20].0
1432  0310              #line 1432 "E:\jim\project\A2021\RF392\copy from pc\RF392A003_V01\USER_PROGRAM\USER_PROGRAM.c"
1432  0310  34B7        	clr [55].1
1432  0311  34B6        	clr [54].1
1432  0312  30B5        	set [53].1
1432  0313  36B7        	clr [55].5
1432  0314  36B6        	clr [54].5
1432  0315  32B5        	set [53].5
1432  0316  37A2        	clr [34].7
文件：USER_PROGRAM.c 编译器版本 HGASM 0202 页次28

1432  0317  37A1        	clr [33].7
1432  0318  33A0        	set [32].7
1433  0319              #line 1433 "E:\jim\project\A2021\RF392\copy from pc\RF392A003_V01\USER_PROGRAM\USER_PROGRAM.c"
1433  0319  3400     R  	clr _userflag2[0].5
1434  031A              #line 1434 "E:\jim\project\A2021\RF392\copy from pc\RF392A003_V01\USER_PROGRAM\USER_PROGRAM.c"
1434  031A  3400     R  	clr _userflag2[0].7
1435  031B              #line 1435 "E:\jim\project\A2021\RF392\copy from pc\RF392A003_V01\USER_PROGRAM\USER_PROGRAM.c"
1435  031B  3400     R  	clr _userflag5[0].2
1435  031C  2800     R  	jmp _L217
1435  031D              _L220:
1441  031D              #line 1441 "E:\jim\project\A2021\RF392\copy from pc\RF392A003_V01\USER_PROGRAM\USER_PROGRAM.c"
1441  031D  0F4F        	mov a,79
1441  031E  0200     R  	sub a,_keypresstimer[0]
1441  031F  0F00        	mov a,0
1441  0320  1200     R  	sbc a,_keypresstimer[1]
1441  0321  380A        	snz c
1441  0322  2800     R  	jmp _L115
1443  0323              #line 1443 "E:\jim\project\A2021\RF392\copy from pc\RF392A003_V01\USER_PROGRAM\USER_PROGRAM.c"
1443  0323  3C00     R  	sz _userflag5[0].0
1443  0324  2800     R  	jmp _L116
1445  0325              #line 1445 "E:\jim\project\A2021\RF392\copy from pc\RF392A003_V01\USER_PROGRAM\USER_PROGRAM.c"
1445  0325  3000     R  	set _userflag5[0].0
1446  0326              #line 1446 "E:\jim\project\A2021\RF392\copy from pc\RF392A003_V01\USER_PROGRAM\USER_PROGRAM.c"
1446  0326  3616        	clr [22].4
1446  0327  3615        	clr [21].4
1446  0328  3214        	set [20].4
1446  0329  3596        	clr [22].3
1446  032A  3595        	clr [21].3
1446  032B  3194        	set [20].3
1446  032C  3516        	clr [22].2
1446  032D  3515        	clr [21].2
1446  032E  3114        	set [20].2
1446  032F  3416        	clr [22].0
1446  0330  3415        	clr [21].0
1446  0331  3014        	set [20].0
1447  0332              #line 1447 "E:\jim\project\A2021\RF392\copy from pc\RF392A003_V01\USER_PROGRAM\USER_PROGRAM.c"
1447  0332  34B7        	clr [55].1
1447  0333  34B6        	clr [54].1
1447  0334  30B5        	set [53].1
1447  0335  36B7        	clr [55].5
1447  0336  36B6        	clr [54].5
1447  0337  32B5        	set [53].5
1447  0338  37A2        	clr [34].7
1447  0339  37A1        	clr [33].7
1447  033A  37A0        	clr [32].7
1449  033B              #line 1449 "E:\jim\project\A2021\RF392\copy from pc\RF392A003_V01\USER_PROGRAM\USER_PROGRAM.c"
1449  033B  3000     R  	set _userflag5[0].7
1450  033C              #line 1450 "E:\jim\project\A2021\RF392\copy from pc\RF392A003_V01\USER_PROGRAM\USER_PROGRAM.c"
1450  033C  1F00     R  	clr _keyledidicatetimer[0]
1450  033D  1F00     R  	clr _keyledidicatetimer[1]
1450  033E              _L116:
1452  033E              #line 1452 "E:\jim\project\A2021\RF392\copy from pc\RF392A003_V01\USER_PROGRAM\USER_PROGRAM.c"
1452  033E  0F3E        	mov a,62
1452  033F  0200     R  	sub a,_keypresstimer[0]
1452  0340  0F00        	mov a,0
1452  0341  1200     R  	sbc a,_keypresstimer[1]
1452  0342  3C0A        	sz c
1452  0343  2800     R  	jmp _L117
1454  0344              #line 1454 "E:\jim\project\A2021\RF392\copy from pc\RF392A003_V01\USER_PROGRAM\USER_PROGRAM.c"
1454  0344  2000     R  	call _InitLed
文件：USER_PROGRAM.c 编译器版本 HGASM 0202 页次29

1455  0345              #line 1455 "E:\jim\project\A2021\RF392\copy from pc\RF392A003_V01\USER_PROGRAM\USER_PROGRAM.c"
1455  0345  2000     R  	call _clrflagledtimer
1455  0346              _L117:
1457  0346              #line 1457 "E:\jim\project\A2021\RF392\copy from pc\RF392A003_V01\USER_PROGRAM\USER_PROGRAM.c"
1457  0346  3000     R  	set _userflag2[0].3
1458  0347              #line 1458 "E:\jim\project\A2021\RF392\copy from pc\RF392A003_V01\USER_PROGRAM\USER_PROGRAM.c"
1458  0347  3000     R  	set _userflag2[0].7
1460  0348              #line 1460 "E:\jim\project\A2021\RF392\copy from pc\RF392A003_V01\USER_PROGRAM\USER_PROGRAM.c"
1460  0348  3C00     R  	sz _userflag1[0].3
1460  0349  2800     R  	jmp _L118
1462  034A              #line 1462 "E:\jim\project\A2021\RF392\copy from pc\RF392A003_V01\USER_PROGRAM\USER_PROGRAM.c"
1462  034A  3000     R  	set _userflag1[0].3
1463  034B              #line 1463 "E:\jim\project\A2021\RF392\copy from pc\RF392A003_V01\USER_PROGRAM\USER_PROGRAM.c"
1463  034B  1F00     R  	clr _K7paircounter[0]
1464  034C              #line 1464 "E:\jim\project\A2021\RF392\copy from pc\RF392A003_V01\USER_PROGRAM\USER_PROGRAM.c"
1464  034C  340E        	clr [14].0
1465  034D              #line 1465 "E:\jim\project\A2021\RF392\copy from pc\RF392A003_V01\USER_PROGRAM\USER_PROGRAM.c"
1465  034D  1F00     R  	clr _keypairtimer[0]
1465  034E  1F00     R  	clr _keypairtimer[1]
1466  034F              #line 1466 "E:\jim\project\A2021\RF392\copy from pc\RF392A003_V01\USER_PROGRAM\USER_PROGRAM.c"
1466  034F  300E        	set [14].0
1466  0350              _L118:
1468  0350              #line 1468 "E:\jim\project\A2021\RF392\copy from pc\RF392A003_V01\USER_PROGRAM\USER_PROGRAM.c"
1468  0350  3C00     R  	sz _userflag4[0].1
1468  0351  2800     R  	jmp _L119
1470  0352              #line 1470 "E:\jim\project\A2021\RF392\copy from pc\RF392A003_V01\USER_PROGRAM\USER_PROGRAM.c"
1470  0352  3000     R  	set _userflag4[0].1
1471  0353              #line 1471 "E:\jim\project\A2021\RF392\copy from pc\RF392A003_V01\USER_PROGRAM\USER_PROGRAM.c"
1471  0353  3000     R  	set _userflag4[0].0
1471  0354              _L119:
1474  0354              #line 1474 "E:\jim\project\A2021\RF392\copy from pc\RF392A003_V01\USER_PROGRAM\USER_PROGRAM.c"
1474  0354  0F03        	mov a,3
1474  0355  0080     E  	mov _rfmsgarry[0],a
1475  0356              #line 1475 "E:\jim\project\A2021\RF392\copy from pc\RF392A003_V01\USER_PROGRAM\USER_PROGRAM.c"
1475  0356  0F37        	mov a,55
1475  0357  0080     E  	mov _rfmsgarry[1],a
1475  0358  2800     R  	jmp _L79
1475  0359              _L115:
1477  0359              #line 1477 "E:\jim\project\A2021\RF392\copy from pc\RF392A003_V01\USER_PROGRAM\USER_PROGRAM.c"
1477  0359  0F8A        	mov a,138
1477  035A  0200     R  	sub a,_keypresstimer[0]
1477  035B  0F02        	mov a,2
1477  035C  1200     R  	sbc a,_keypresstimer[1]
1477  035D  380A        	snz c
1477  035E  2800     R  	jmp _L101
1482  035F              #line 1482 "E:\jim\project\A2021\RF392\copy from pc\RF392A003_V01\USER_PROGRAM\USER_PROGRAM.c"
1482  035F  0F71        	mov a,113
1482  0360  0200     R  	sub a,_keypresstimer[0]
1482  0361  0F02        	mov a,2
1482  0362  1200     R  	sbc a,_keypresstimer[1]
1482  0363  3C0A        	sz c
1482  0364  2800     R  	jmp _L120
1482  0365              _L216:
1484  0365              #line 1484 "E:\jim\project\A2021\RF392\copy from pc\RF392A003_V01\USER_PROGRAM\USER_PROGRAM.c"
1484  0365  3616        	clr [22].4
1484  0366  3615        	clr [21].4
1484  0367  3614        	clr [20].4
1484  0368  3596        	clr [22].3
1484  0369  3595        	clr [21].3
1484  036A  3594        	clr [20].3
文件：USER_PROGRAM.c 编译器版本 HGASM 0202 页次30

1484  036B  3516        	clr [22].2
1484  036C  3515        	clr [21].2
1484  036D  3114        	set [20].2
1484  036E  3416        	clr [22].0
1484  036F  3415        	clr [21].0
1484  0370  3414        	clr [20].0
1485  0371              #line 1485 "E:\jim\project\A2021\RF392\copy from pc\RF392A003_V01\USER_PROGRAM\USER_PROGRAM.c"
1485  0371  34B7        	clr [55].1
1485  0372  34B6        	clr [54].1
1485  0373  34B5        	clr [53].1
1485  0374  36B7        	clr [55].5
1485  0375  36B6        	clr [54].5
1485  0376  32B5        	set [53].5
1485  0377  37A2        	clr [34].7
1485  0378  37A1        	clr [33].7
1485  0379  37A0        	clr [32].7
1485  037A  2800     R  	jmp _L79
1485  037B              _L120:
1489  037B              #line 1489 "E:\jim\project\A2021\RF392\copy from pc\RF392A003_V01\USER_PROGRAM\USER_PROGRAM.c"
1489  037B  3616        	clr [22].4
1489  037C  3615        	clr [21].4
1489  037D  3214        	set [20].4
1489  037E  3596        	clr [22].3
1489  037F  3595        	clr [21].3
1489  0380  3194        	set [20].3
1489  0381  3516        	clr [22].2
1489  0382  3515        	clr [21].2
1489  0383  3114        	set [20].2
1489  0384  3416        	clr [22].0
1489  0385  3415        	clr [21].0
1489  0386  3014        	set [20].0
1490  0387              #line 1490 "E:\jim\project\A2021\RF392\copy from pc\RF392A003_V01\USER_PROGRAM\USER_PROGRAM.c"
1490  0387  34B7        	clr [55].1
1490  0388  34B6        	clr [54].1
1490  0389  30B5        	set [53].1
1490  038A  36B7        	clr [55].5
1490  038B  36B6        	clr [54].5
1490  038C  32B5        	set [53].5
1490  038D  37A2        	clr [34].7
1490  038E  37A1        	clr [33].7
1490  038F  33A0        	set [32].7
1491  0390              #line 1491 "E:\jim\project\A2021\RF392\copy from pc\RF392A003_V01\USER_PROGRAM\USER_PROGRAM.c"
1491  0390  3400     R  	clr _userflag2[0].3
1492  0391              #line 1492 "E:\jim\project\A2021\RF392\copy from pc\RF392A003_V01\USER_PROGRAM\USER_PROGRAM.c"
1492  0391  3400     R  	clr _userflag2[0].7
1493  0392              #line 1493 "E:\jim\project\A2021\RF392\copy from pc\RF392A003_V01\USER_PROGRAM\USER_PROGRAM.c"
1493  0392  3400     R  	clr _userflag5[0].0
1493  0393              _L217:
1494  0393              #line 1494 "E:\jim\project\A2021\RF392\copy from pc\RF392A003_V01\USER_PROGRAM\USER_PROGRAM.c"
1494  0393  2000     R  	call _clrflagledtimer
1494  0394  2800     R  	jmp _L79
1494  0395              _L214:
1545  0395              #line 1545 "E:\jim\project\A2021\RF392\copy from pc\RF392A003_V01\USER_PROGRAM\USER_PROGRAM.c"
1545  0395  0F4F        	mov a,79
1545  0396  0200     R  	sub a,_keypresstimer[0]
1545  0397  0F00        	mov a,0
1545  0398  1200     R  	sbc a,_keypresstimer[1]
1545  0399  380A        	snz c
1545  039A  2800     R  	jmp _L121
1547  039B              #line 1547 "E:\jim\project\A2021\RF392\copy from pc\RF392A003_V01\USER_PROGRAM\USER_PROGRAM.c"
文件：USER_PROGRAM.c 编译器版本 HGASM 0202 页次31

1547  039B  0700     R  	mov a,_keyvalue[0]
1547  039C  0080     R  	mov _keytempvalue[0],a
1548  039D              #line 1548 "E:\jim\project\A2021\RF392\copy from pc\RF392A003_V01\USER_PROGRAM\USER_PROGRAM.c"
1548  039D  1F00     R  	clr _keycount[0]
1549  039E              #line 1549 "E:\jim\project\A2021\RF392\copy from pc\RF392A003_V01\USER_PROGRAM\USER_PROGRAM.c"
1549  039E  0F93        	mov a,low offset _tempcount
1549  039F  0083        	mov mp,a
1549  03A0  0F03        	mov a,high offset _tempcount
1549  03A1  0081        	mov sbp,a
1549  03A2  0701        	mov a,sbp
1549  03A3  0084        	mov bp,a
1549  03A4  0F00        	mov a,0
1549  03A5  0082        	mov ir,a
1549  03A6              _L122:
1549  03A6  0F93        	mov a,low offset _tempcount
1549  03A7  0083        	mov mp,a
1549  03A8  0F03        	mov a,high offset _tempcount
1549  03A9  0081        	mov sbp,a
1549  03AA  0701        	mov a,sbp
1549  03AB  0084        	mov bp,a
1549  03AC  0702        	mov a,ir
1549  03AD  0080     E  	mov ra,a
1549  03AE  0F06        	mov a,6
1549  03AF  0200     E  	sub a,ra
1549  03B0  380A        	snz c
1549  03B1  2800     R  	jmp _L221
1551  03B2              #line 1551 "E:\jim\project\A2021\RF392\copy from pc\RF392A003_V01\USER_PROGRAM\USER_PROGRAM.c"
1551  03B2  3800     R  	snz _keytempvalue[0].0
1551  03B3  2800     R  	jmp _L123
1553  03B4              #line 1553 "E:\jim\project\A2021\RF392\copy from pc\RF392A003_V01\USER_PROGRAM\USER_PROGRAM.c"
1553  03B4  1480     R  	inc _keycount[0]
1553  03B5              _L123:
1555  03B5              #line 1555 "E:\jim\project\A2021\RF392\copy from pc\RF392A003_V01\USER_PROGRAM\USER_PROGRAM.c"
1555  03B5  340A        	clr c
1555  03B6  1B80     R  	rrc _keytempvalue[0]
1549  03B7              #line 1549 "E:\jim\project\A2021\RF392\copy from pc\RF392A003_V01\USER_PROGRAM\USER_PROGRAM.c"
1549  03B7  0F93        	mov a,low offset _tempcount
1549  03B8  0083        	mov mp,a
1549  03B9  0F03        	mov a,high offset _tempcount
1549  03BA  0081        	mov sbp,a
1549  03BB  0701        	mov a,sbp
1549  03BC  0084        	mov bp,a
1549  03BD  0702        	mov a,ir
1549  03BE  0080     R  	mov _USER_PROGRAM_2[0],a
1549  03BF  1400     R  	inca _USER_PROGRAM_2[0]
1549  03C0  0080     E  	mov ra,a
1549  03C1  0701        	mov a,sbp
1549  03C2  0084        	mov bp,a
1549  03C3  0700     E  	mov a,ra
1549  03C4  0082        	mov ir,a
1549  03C5  2800     R  	jmp _L122
1549  03C6              _L221:
1557  03C6              #line 1557 "E:\jim\project\A2021\RF392\copy from pc\RF392A003_V01\USER_PROGRAM\USER_PROGRAM.c"
1557  03C6  0F02        	mov a,2
1557  03C7  0200     R  	sub a,_keycount[0]
1557  03C8  3C0A        	sz c
1557  03C9  2800     R  	jmp _L125
1559  03CA              #line 1559 "E:\jim\project\A2021\RF392\copy from pc\RF392A003_V01\USER_PROGRAM\USER_PROGRAM.c"
1559  03CA  3616        	clr [22].4
1559  03CB  3615        	clr [21].4
文件：USER_PROGRAM.c 编译器版本 HGASM 0202 页次32

1559  03CC  3214        	set [20].4
1560  03CD              #line 1560 "E:\jim\project\A2021\RF392\copy from pc\RF392A003_V01\USER_PROGRAM\USER_PROGRAM.c"
1560  03CD  3596        	clr [22].3
1560  03CE  3595        	clr [21].3
1560  03CF  3194        	set [20].3
1561  03D0              #line 1561 "E:\jim\project\A2021\RF392\copy from pc\RF392A003_V01\USER_PROGRAM\USER_PROGRAM.c"
1561  03D0  3516        	clr [22].2
1561  03D1  3515        	clr [21].2
1561  03D2  3114        	set [20].2
1562  03D3              #line 1562 "E:\jim\project\A2021\RF392\copy from pc\RF392A003_V01\USER_PROGRAM\USER_PROGRAM.c"
1562  03D3  3416        	clr [22].0
1562  03D4  3415        	clr [21].0
1562  03D5  3014        	set [20].0
1563  03D6              #line 1563 "E:\jim\project\A2021\RF392\copy from pc\RF392A003_V01\USER_PROGRAM\USER_PROGRAM.c"
1563  03D6  34B7        	clr [55].1
1563  03D7  34B6        	clr [54].1
1563  03D8  30B5        	set [53].1
1564  03D9              #line 1564 "E:\jim\project\A2021\RF392\copy from pc\RF392A003_V01\USER_PROGRAM\USER_PROGRAM.c"
1564  03D9  36B7        	clr [55].5
1564  03DA  36B6        	clr [54].5
1564  03DB  32B5        	set [53].5
1565  03DC              #line 1565 "E:\jim\project\A2021\RF392\copy from pc\RF392A003_V01\USER_PROGRAM\USER_PROGRAM.c"
1565  03DC  37A2        	clr [34].7
1565  03DD  37A1        	clr [33].7
1565  03DE  37A0        	clr [32].7
1566  03DF              #line 1566 "E:\jim\project\A2021\RF392\copy from pc\RF392A003_V01\USER_PROGRAM\USER_PROGRAM.c"
1566  03DF  3000     R  	set _userflag2[0].7
1567  03E0              #line 1567 "E:\jim\project\A2021\RF392\copy from pc\RF392A003_V01\USER_PROGRAM\USER_PROGRAM.c"
1567  03E0  0F03        	mov a,3
1567  03E1  0080     E  	mov _rfmsgarry[0],a
1568  03E2              #line 1568 "E:\jim\project\A2021\RF392\copy from pc\RF392A003_V01\USER_PROGRAM\USER_PROGRAM.c"
1568  03E2  0F37        	mov a,55
1568  03E3  0080     E  	mov _rfmsgarry[1],a
1569  03E4              #line 1569 "E:\jim\project\A2021\RF392\copy from pc\RF392A003_V01\USER_PROGRAM\USER_PROGRAM.c"
1569  03E4  3000     R  	set _userflag3[0].3
1570  03E5              #line 1570 "E:\jim\project\A2021\RF392\copy from pc\RF392A003_V01\USER_PROGRAM\USER_PROGRAM.c"
1570  03E5  3000     R  	set _userflag3[0].6
1572  03E6              #line 1572 "E:\jim\project\A2021\RF392\copy from pc\RF392A003_V01\USER_PROGRAM\USER_PROGRAM.c"
1572  03E6  3000     R  	set _userflag5[0].7
1573  03E7              #line 1573 "E:\jim\project\A2021\RF392\copy from pc\RF392A003_V01\USER_PROGRAM\USER_PROGRAM.c"
1573  03E7  1F00     R  	clr _keyledidicatetimer[0]
1573  03E8  1F00     R  	clr _keyledidicatetimer[1]
1573  03E9  2800     R  	jmp _L126
1573  03EA              _L125:
1578  03EA              #line 1578 "E:\jim\project\A2021\RF392\copy from pc\RF392A003_V01\USER_PROGRAM\USER_PROGRAM.c"
1578  03EA  2000     R  	call _InitLed
1579  03EB              #line 1579 "E:\jim\project\A2021\RF392\copy from pc\RF392A003_V01\USER_PROGRAM\USER_PROGRAM.c"
1579  03EB  1F00     R  	clr _userflag5[0]
1579  03EC              _L126:
1582  03EC              #line 1582 "E:\jim\project\A2021\RF392\copy from pc\RF392A003_V01\USER_PROGRAM\USER_PROGRAM.c"
1582  03EC  0F3E        	mov a,62
1582  03ED  0200     R  	sub a,_keypresstimer[0]
1582  03EE  0F00        	mov a,0
1582  03EF  1200     R  	sbc a,_keypresstimer[1]
1582  03F0  3C0A        	sz c
1582  03F1  2800     R  	jmp _L127
1584  03F2              #line 1584 "E:\jim\project\A2021\RF392\copy from pc\RF392A003_V01\USER_PROGRAM\USER_PROGRAM.c"
1584  03F2  2000     R  	call _InitLed
1584  03F3  2800     R  	jmp _L215
1584  03F4              _L121:
文件：USER_PROGRAM.c 编译器版本 HGASM 0202 页次33

1590  03F4              #line 1590 "E:\jim\project\A2021\RF392\copy from pc\RF392A003_V01\USER_PROGRAM\USER_PROGRAM.c"
1590  03F4  0F8A        	mov a,138
1590  03F5  0200     R  	sub a,_keypresstimer[0]
1590  03F6  0F02        	mov a,2
1590  03F7  1200     R  	sbc a,_keypresstimer[1]
1590  03F8  3C0A        	sz c
1590  03F9  2800     R  	jmp _L128
1592  03FA              #line 1592 "E:\jim\project\A2021\RF392\copy from pc\RF392A003_V01\USER_PROGRAM\USER_PROGRAM.c"
1592  03FA  2000     R  	call _InitLed
1592  03FB  2800     R  	jmp _L127
1592  03FC              _L128:
1595  03FC              #line 1595 "E:\jim\project\A2021\RF392\copy from pc\RF392A003_V01\USER_PROGRAM\USER_PROGRAM.c"
1595  03FC  0F71        	mov a,113
1595  03FD  0200     R  	sub a,_keypresstimer[0]
1595  03FE  0F02        	mov a,2
1595  03FF  1200     R  	sbc a,_keypresstimer[1]
1595  0400  3C0A        	sz c
1595  0401  2800     R  	jmp _L129
1597  0402              #line 1597 "E:\jim\project\A2021\RF392\copy from pc\RF392A003_V01\USER_PROGRAM\USER_PROGRAM.c"
1597  0402  3616        	clr [22].4
1597  0403  3615        	clr [21].4
1597  0404  3614        	clr [20].4
1597  0405  3596        	clr [22].3
1597  0406  3595        	clr [21].3
1597  0407  3594        	clr [20].3
1597  0408  3516        	clr [22].2
1597  0409  3515        	clr [21].2
1597  040A  3114        	set [20].2
1597  040B  3416        	clr [22].0
1597  040C  3415        	clr [21].0
1597  040D  3414        	clr [20].0
1598  040E              #line 1598 "E:\jim\project\A2021\RF392\copy from pc\RF392A003_V01\USER_PROGRAM\USER_PROGRAM.c"
1598  040E  34B7        	clr [55].1
1598  040F  34B6        	clr [54].1
1598  0410  34B5        	clr [53].1
1598  0411  36B7        	clr [55].5
1598  0412  36B6        	clr [54].5
1598  0413  32B5        	set [53].5
1598  0414  37A2        	clr [34].7
1598  0415  37A1        	clr [33].7
1598  0416  37A0        	clr [32].7
1598  0417  2800     R  	jmp _L127
1598  0418              _L129:
1602  0418              #line 1602 "E:\jim\project\A2021\RF392\copy from pc\RF392A003_V01\USER_PROGRAM\USER_PROGRAM.c"
1602  0418  3616        	clr [22].4
1602  0419  3615        	clr [21].4
1602  041A  3214        	set [20].4
1602  041B  3596        	clr [22].3
1602  041C  3595        	clr [21].3
1602  041D  3194        	set [20].3
1602  041E  3516        	clr [22].2
1602  041F  3515        	clr [21].2
1602  0420  3114        	set [20].2
1602  0421  3416        	clr [22].0
1602  0422  3415        	clr [21].0
1602  0423  3014        	set [20].0
1603  0424              #line 1603 "E:\jim\project\A2021\RF392\copy from pc\RF392A003_V01\USER_PROGRAM\USER_PROGRAM.c"
1603  0424  34B7        	clr [55].1
1603  0425  34B6        	clr [54].1
1603  0426  30B5        	set [53].1
文件：USER_PROGRAM.c 编译器版本 HGASM 0202 页次34

1603  0427  36B7        	clr [55].5
1603  0428  36B6        	clr [54].5
1603  0429  32B5        	set [53].5
1603  042A  37A2        	clr [34].7
1603  042B  37A1        	clr [33].7
1603  042C  33A0        	set [32].7
1604  042D              #line 1604 "E:\jim\project\A2021\RF392\copy from pc\RF392A003_V01\USER_PROGRAM\USER_PROGRAM.c"
1604  042D  3400     R  	clr _userflag2[0].7
1605  042E              #line 1605 "E:\jim\project\A2021\RF392\copy from pc\RF392A003_V01\USER_PROGRAM\USER_PROGRAM.c"
1605  042E  3400     R  	clr _userflag3[0].3
1606  042F              #line 1606 "E:\jim\project\A2021\RF392\copy from pc\RF392A003_V01\USER_PROGRAM\USER_PROGRAM.c"
1606  042F  3400     R  	clr _userflag3[0].6
1606  0430              _L215:
1607  0430              #line 1607 "E:\jim\project\A2021\RF392\copy from pc\RF392A003_V01\USER_PROGRAM\USER_PROGRAM.c"
1607  0430  2000     R  	call _clrflagledtimer
1607  0431              _L127:
1610  0431              #line 1610 "E:\jim\project\A2021\RF392\copy from pc\RF392A003_V01\USER_PROGRAM\USER_PROGRAM.c"
1610  0431  3000     R  	set _userflag4[0].4
1611  0432              #line 1611 "E:\jim\project\A2021\RF392\copy from pc\RF392A003_V01\USER_PROGRAM\USER_PROGRAM.c"
1611  0432  3000     R  	set _userflag1[0].7
1612  0433              #line 1612 "E:\jim\project\A2021\RF392\copy from pc\RF392A003_V01\USER_PROGRAM\USER_PROGRAM.c"
1612  0433  340E        	clr [14].0
1613  0434              #line 1613 "E:\jim\project\A2021\RF392\copy from pc\RF392A003_V01\USER_PROGRAM\USER_PROGRAM.c"
1613  0434  1F00     R  	clr _keymachtimer[0]
1613  0435  1F00     R  	clr _keymachtimer[1]
1614  0436              #line 1614 "E:\jim\project\A2021\RF392\copy from pc\RF392A003_V01\USER_PROGRAM\USER_PROGRAM.c"
1614  0436  300E        	set [14].0
1614  0437              _L79:
1614  0437              #pragma debug scope 16 15
1614  0437              #pragma debug scope 15 1
 851  0437              #line 851 "E:\jim\project\A2021\RF392\copy from pc\RF392A003_V01\USER_PROGRAM\USER_PROGRAM.c"
 851  0437  3800     R  	snz _userflag2[0].7
 851  0438  2800     R  	jmp _L60
 853  0439              #line 853 "E:\jim\project\A2021\RF392\copy from pc\RF392A003_V01\USER_PROGRAM\USER_PROGRAM.c"
 853  0439  1F00     R  	clr _keysamecounter[0]
 853  043A  2800     R  	jmp _L60
 853  043B              _L61:
 861  043B              #line 861 "E:\jim\project\A2021\RF392\copy from pc\RF392A003_V01\USER_PROGRAM\USER_PROGRAM.c"
 861  043B  3800     R  	snz _userflag4[0].4
 861  043C  2800     R  	jmp _L131
 863  043D              #line 863 "E:\jim\project\A2021\RF392\copy from pc\RF392A003_V01\USER_PROGRAM\USER_PROGRAM.c"
 863  043D  3C00     R  	sz _userflag1[0].7
 863  043E  2800     R  	jmp _L131
 865  043F              #line 865 "E:\jim\project\A2021\RF392\copy from pc\RF392A003_V01\USER_PROGRAM\USER_PROGRAM.c"
 865  043F  3000     R  	set _userflag1[0].7
 866  0440              #line 866 "E:\jim\project\A2021\RF392\copy from pc\RF392A003_V01\USER_PROGRAM\USER_PROGRAM.c"
 866  0440  340E        	clr [14].0
 867  0441              #line 867 "E:\jim\project\A2021\RF392\copy from pc\RF392A003_V01\USER_PROGRAM\USER_PROGRAM.c"
 867  0441  1F00     R  	clr _keymachtimer[0]
 867  0442  1F00     R  	clr _keymachtimer[1]
 868  0443              #line 868 "E:\jim\project\A2021\RF392\copy from pc\RF392A003_V01\USER_PROGRAM\USER_PROGRAM.c"
 868  0443  300E        	set [14].0
 868  0444              _L131:
 871  0444              #line 871 "E:\jim\project\A2021\RF392\copy from pc\RF392A003_V01\USER_PROGRAM\USER_PROGRAM.c"
 871  0444  3800     R  	snz _userflag1[0].7
 871  0445  2800     R  	jmp _L132
 871  0446  0F63        	mov a,99
 871  0447  0200     R  	sub a,_keymachtimer[0]
 871  0448  0F00        	mov a,0
 871  0449  1200     R  	sbc a,_keymachtimer[1]
文件：USER_PROGRAM.c 编译器版本 HGASM 0202 页次35

 871  044A  3C0A        	sz c
 871  044B  2800     R  	jmp _L132
 873  044C              #line 873 "E:\jim\project\A2021\RF392\copy from pc\RF392A003_V01\USER_PROGRAM\USER_PROGRAM.c"
 873  044C  3400     R  	clr _userflag1[0].7
 874  044D              #line 874 "E:\jim\project\A2021\RF392\copy from pc\RF392A003_V01\USER_PROGRAM\USER_PROGRAM.c"
 874  044D  1F00     R  	clr _keymachtimer[0]
 874  044E  1F00     R  	clr _keymachtimer[1]
 875  044F              #line 875 "E:\jim\project\A2021\RF392\copy from pc\RF392A003_V01\USER_PROGRAM\USER_PROGRAM.c"
 875  044F  3400     R  	clr _userflag4[0].4
 876  0450              #line 876 "E:\jim\project\A2021\RF392\copy from pc\RF392A003_V01\USER_PROGRAM\USER_PROGRAM.c"
 876  0450  3400     R  	clr _userflag3[0].6
 876  0451              _L132:
 879  0451              #line 879 "E:\jim\project\A2021\RF392\copy from pc\RF392A003_V01\USER_PROGRAM\USER_PROGRAM.c"
 879  0451  3400     R  	clr _userflag4[0].3
 882  0452              #line 882 "E:\jim\project\A2021\RF392\copy from pc\RF392A003_V01\USER_PROGRAM\USER_PROGRAM.c"
 882  0452  3400     R  	clr _userflag5[0].0
 883  0453              #line 883 "E:\jim\project\A2021\RF392\copy from pc\RF392A003_V01\USER_PROGRAM\USER_PROGRAM.c"
 883  0453  3400     R  	clr _userflag5[0].1
 884  0454              #line 884 "E:\jim\project\A2021\RF392\copy from pc\RF392A003_V01\USER_PROGRAM\USER_PROGRAM.c"
 884  0454  3400     R  	clr _userflag5[0].2
 885  0455              #line 885 "E:\jim\project\A2021\RF392\copy from pc\RF392A003_V01\USER_PROGRAM\USER_PROGRAM.c"
 885  0455  3400     R  	clr _userflag5[0].3
 886  0456              #line 886 "E:\jim\project\A2021\RF392\copy from pc\RF392A003_V01\USER_PROGRAM\USER_PROGRAM.c"
 886  0456  3400     R  	clr _userflag5[0].4
 887  0457              #line 887 "E:\jim\project\A2021\RF392\copy from pc\RF392A003_V01\USER_PROGRAM\USER_PROGRAM.c"
 887  0457  3400     R  	clr _userflag5[0].5
 888  0458              #line 888 "E:\jim\project\A2021\RF392\copy from pc\RF392A003_V01\USER_PROGRAM\USER_PROGRAM.c"
 888  0458  3400     R  	clr _userflag5[0].6
 890  0459              #line 890 "E:\jim\project\A2021\RF392\copy from pc\RF392A003_V01\USER_PROGRAM\USER_PROGRAM.c"
 890  0459  1F00     R  	clr _keyvalue[0]
 891  045A              #line 891 "E:\jim\project\A2021\RF392\copy from pc\RF392A003_V01\USER_PROGRAM\USER_PROGRAM.c"
 891  045A  1F00     R  	clr _pkeyvalue[0]
 892  045B              #line 892 "E:\jim\project\A2021\RF392\copy from pc\RF392A003_V01\USER_PROGRAM\USER_PROGRAM.c"
 892  045B  3400     R  	clr _userflag1[0].0
 894  045C              #line 894 "E:\jim\project\A2021\RF392\copy from pc\RF392A003_V01\USER_PROGRAM\USER_PROGRAM.c"
 894  045C  3800     R  	snz _userflag5[0].7
 894  045D  2800     R  	jmp _L133
 894  045E  0F3E        	mov a,62
 894  045F  0200     R  	sub a,_keyledidicatetimer[0]
 894  0460  0F00        	mov a,0
 894  0461  1200     R  	sbc a,_keyledidicatetimer[1]
 894  0462  3C0A        	sz c
 894  0463  2800     R  	jmp _L133
 898  0464              #line 898 "E:\jim\project\A2021\RF392\copy from pc\RF392A003_V01\USER_PROGRAM\USER_PROGRAM.c"
 898  0464  2000     R  	call _InitLed
 899  0465              #line 899 "E:\jim\project\A2021\RF392\copy from pc\RF392A003_V01\USER_PROGRAM\USER_PROGRAM.c"
 899  0465  2000     R  	call _clrflagledtimer
 899  0466              _L133:
 902  0466              #line 902 "E:\jim\project\A2021\RF392\copy from pc\RF392A003_V01\USER_PROGRAM\USER_PROGRAM.c"
 902  0466  3C00     R  	sz _userflag5[0].7
 902  0467  2800     R  	jmp _L134
 905  0468              #line 905 "E:\jim\project\A2021\RF392\copy from pc\RF392A003_V01\USER_PROGRAM\USER_PROGRAM.c"
 905  0468  2000     R  	call _InitLed
 905  0469              _L134:
 909  0469              #line 909 "E:\jim\project\A2021\RF392\copy from pc\RF392A003_V01\USER_PROGRAM\USER_PROGRAM.c"
 909  0469  3400     R  	clr _userflag2[0].7
 913  046A              #line 913 "E:\jim\project\A2021\RF392\copy from pc\RF392A003_V01\USER_PROGRAM\USER_PROGRAM.c"
 913  046A  3400     R  	clr _userflag4[0].1
 914  046B              #line 914 "E:\jim\project\A2021\RF392\copy from pc\RF392A003_V01\USER_PROGRAM\USER_PROGRAM.c"
 914  046B  3800     R  	snz _userflag4[0].0
文件：USER_PROGRAM.c 编译器版本 HGASM 0202 页次36

 914  046C  2800     R  	jmp _L135
 916  046D              #line 916 "E:\jim\project\A2021\RF392\copy from pc\RF392A003_V01\USER_PROGRAM\USER_PROGRAM.c"
 916  046D  3400     R  	clr _userflag4[0].0
 917  046E              #line 917 "E:\jim\project\A2021\RF392\copy from pc\RF392A003_V01\USER_PROGRAM\USER_PROGRAM.c"
 917  046E  1480     R  	inc _K7paircounter[0]
 917  046F              _L135:
 919  046F              #line 919 "E:\jim\project\A2021\RF392\copy from pc\RF392A003_V01\USER_PROGRAM\USER_PROGRAM.c"
 919  046F  0F2B        	mov a,43
 919  0470  0200     R  	sub a,_keypairtimer[0]
 919  0471  0F01        	mov a,1
 919  0472  1200     R  	sbc a,_keypairtimer[1]
 919  0473  3C0A        	sz c
 919  0474  2800     R  	jmp _L136
 922  0475              #line 922 "E:\jim\project\A2021\RF392\copy from pc\RF392A003_V01\USER_PROGRAM\USER_PROGRAM.c"
 922  0475  3400     R  	clr _userflag1[0].3
 923  0476              #line 923 "E:\jim\project\A2021\RF392\copy from pc\RF392A003_V01\USER_PROGRAM\USER_PROGRAM.c"
 923  0476  3400     R  	clr _userflag1[0].3
 924  0477              #line 924 "E:\jim\project\A2021\RF392\copy from pc\RF392A003_V01\USER_PROGRAM\USER_PROGRAM.c"
 924  0477  1F00     R  	clr _keypairtimer[0]
 924  0478  1F00     R  	clr _keypairtimer[1]
 925  0479              #line 925 "E:\jim\project\A2021\RF392\copy from pc\RF392A003_V01\USER_PROGRAM\USER_PROGRAM.c"
 925  0479  1F00     R  	clr _K7paircounter[0]
 926  047A              #line 926 "E:\jim\project\A2021\RF392\copy from pc\RF392A003_V01\USER_PROGRAM\USER_PROGRAM.c"
 926  047A  3400     R  	clr _userflag4[0].1
 927  047B              #line 927 "E:\jim\project\A2021\RF392\copy from pc\RF392A003_V01\USER_PROGRAM\USER_PROGRAM.c"
 927  047B  3400     R  	clr _userflag3[0].0
 927  047C              _L136:
 929  047C              #line 929 "E:\jim\project\A2021\RF392\copy from pc\RF392A003_V01\USER_PROGRAM\USER_PROGRAM.c"
 929  047C  0F02        	mov a,2
 929  047D  0200     R  	sub a,_K7paircounter[0]
 929  047E  3C0A        	sz c
 929  047F  2800     R  	jmp _L137
 929  0480  0700     R  	mov a,_keypairtimer[0]
 929  0481  0500     R  	or a,_keypairtimer[1]
 929  0482  3D0A        	sz z
 929  0483  2800     R  	jmp _L137
 929  0484  0F2B        	mov a,43
 929  0485  0200     R  	sub a,_keypairtimer[0]
 929  0486  0F01        	mov a,1
 929  0487  1200     R  	sbc a,_keypairtimer[1]
 929  0488  380A        	snz c
 929  0489  2800     R  	jmp _L137
 931  048A              #line 931 "E:\jim\project\A2021\RF392\copy from pc\RF392A003_V01\USER_PROGRAM\USER_PROGRAM.c"
 931  048A  3C00     R  	sz _userflag3[0].0
 931  048B  2800     R  	jmp _L138
 933  048C              #line 933 "E:\jim\project\A2021\RF392\copy from pc\RF392A003_V01\USER_PROGRAM\USER_PROGRAM.c"
 933  048C  1480     E  	inc _ittranscounter[0]
 933  048D  3D0A        	sz z
 933  048E  1480     E  	inc _ittranscounter[1]
 934  048F              #line 934 "E:\jim\project\A2021\RF392\copy from pc\RF392A003_V01\USER_PROGRAM\USER_PROGRAM.c"
 934  048F  340E        	clr [14].0
 935  0490              #line 935 "E:\jim\project\A2021\RF392\copy from pc\RF392A003_V01\USER_PROGRAM\USER_PROGRAM.c"
 935  0490  0FE0        	mov a,-32
 935  0491  0080     R  	mov _keypairtimer[0],a
 935  0492  1F00     R  	clr _keypairtimer[1]
 936  0493              #line 936 "E:\jim\project\A2021\RF392\copy from pc\RF392A003_V01\USER_PROGRAM\USER_PROGRAM.c"
 936  0493  0F11        	mov a,17
 936  0494  0200     E  	sub a,_STANDBY_TIME[0]
 936  0495  380A        	snz c
 936  0496  2800     R  	jmp _L139
文件：USER_PROGRAM.c 编译器版本 HGASM 0202 页次37

 938  0497              #line 938 "E:\jim\project\A2021\RF392\copy from pc\RF392A003_V01\USER_PROGRAM\USER_PROGRAM.c"
 938  0497  0F12        	mov a,18
 938  0498  0080     E  	mov _STANDBY_TIME[0],a
 938  0499              _L139:
 940  0499              #line 940 "E:\jim\project\A2021\RF392\copy from pc\RF392A003_V01\USER_PROGRAM\USER_PROGRAM.c"
 940  0499  300E        	set [14].0
 940  049A              _L138:
 942  049A              #line 942 "E:\jim\project\A2021\RF392\copy from pc\RF392A003_V01\USER_PROGRAM\USER_PROGRAM.c"
 942  049A  3000     R  	set _userflag3[0].0
 943  049B              #line 943 "E:\jim\project\A2021\RF392\copy from pc\RF392A003_V01\USER_PROGRAM\USER_PROGRAM.c"
 943  049B  3400     R  	clr _userflag2[0].3
 946  049C              #line 946 "E:\jim\project\A2021\RF392\copy from pc\RF392A003_V01\USER_PROGRAM\USER_PROGRAM.c"
 946  049C  0700     R  	mov a,_keypairtimer[0]
 946  049D  0080     E  	mov rb,a
 946  049E  0700     R  	mov a,_keypairtimer[1]
 946  049F  0080     E  	mov rc,a
 946  04A0  0F01        	mov a,1  
 946  04A1  0680     E  	andm a,rb  
 946  04A2  0F00        	mov a,0  
 946  04A3  0680     E  	andm a,rc
 946  04A4  0700     E  	mov a,rb
 946  04A5  0500     E  	or a,rc
 946  04A6  3D0A        	sz z
 946  04A7  2800     R  	jmp _L140
 948  04A8              #line 948 "E:\jim\project\A2021\RF392\copy from pc\RF392A003_V01\USER_PROGRAM\USER_PROGRAM.c"
 948  04A8  3000     R  	set _userflag2[0].7
 948  04A9              _L140:
 950  04A9              #line 950 "E:\jim\project\A2021\RF392\copy from pc\RF392A003_V01\USER_PROGRAM\USER_PROGRAM.c"
 950  04A9  0F03        	mov a,3
 950  04AA  0080     E  	mov _rfmsgarry[0],a
 951  04AB              #line 951 "E:\jim\project\A2021\RF392\copy from pc\RF392A003_V01\USER_PROGRAM\USER_PROGRAM.c"
 951  04AB  0F4D        	mov a,77
 951  04AC  0080     E  	mov _rfmsgarry[1],a
 952  04AD              #line 952 "E:\jim\project\A2021\RF392\copy from pc\RF392A003_V01\USER_PROGRAM\USER_PROGRAM.c"
 952  04AD  1F00     R  	clr _keypresstimer[0]
 952  04AE  1F00     R  	clr _keypresstimer[1]
 952  04AF              _L137:
 961  04AF              #line 961 "E:\jim\project\A2021\RF392\copy from pc\RF392A003_V01\USER_PROGRAM\USER_PROGRAM.c"
 961  04AF  3800     R  	snz _userflag3[0].3
 961  04B0  2800     R  	jmp _L142
 963  04B1              #line 963 "E:\jim\project\A2021\RF392\copy from pc\RF392A003_V01\USER_PROGRAM\USER_PROGRAM.c"
 963  04B1  3400     R  	clr _userflag3[0].3
 964  04B2              #line 964 "E:\jim\project\A2021\RF392\copy from pc\RF392A003_V01\USER_PROGRAM\USER_PROGRAM.c"
 964  04B2  3400     R  	clr _userflag3[0].6
 965  04B3              #line 965 "E:\jim\project\A2021\RF392\copy from pc\RF392A003_V01\USER_PROGRAM\USER_PROGRAM.c"
 965  04B3  3400     R  	clr _userflag3[0].4
 966  04B4              #line 966 "E:\jim\project\A2021\RF392\copy from pc\RF392A003_V01\USER_PROGRAM\USER_PROGRAM.c"
 966  04B4  3400     R  	clr _userflag4[0].7
 967  04B5              #line 967 "E:\jim\project\A2021\RF392\copy from pc\RF392A003_V01\USER_PROGRAM\USER_PROGRAM.c"
 967  04B5  3400     R  	clr _userflag3[0].5
 968  04B6              #line 968 "E:\jim\project\A2021\RF392\copy from pc\RF392A003_V01\USER_PROGRAM\USER_PROGRAM.c"
 968  04B6  3C00     R  	sz _userflag2[0].7
 968  04B7  2800     R  	jmp _L142
 968  04B8  0700     R  	mov a,_keypresstimer[0]
 968  04B9  0500     R  	or a,_keypresstimer[1]
 968  04BA  3D0A        	sz z
 968  04BB  2800     R  	jmp _L142
 968  04BC  0F3D        	mov a,61
 968  04BD  0200     R  	sub a,_keypresstimer[0]
 968  04BE  0F00        	mov a,0
文件：USER_PROGRAM.c 编译器版本 HGASM 0202 页次38

 968  04BF  1200     R  	sbc a,_keypresstimer[1]
 968  04C0  380A        	snz c
 968  04C1  2800     R  	jmp _L142
 970  04C2              #line 970 "E:\jim\project\A2021\RF392\copy from pc\RF392A003_V01\USER_PROGRAM\USER_PROGRAM.c"
 970  04C2  0700     R  	mov a,_keypresstimer[0]
 970  04C3  0080     E  	mov rb,a
 970  04C4  0700     R  	mov a,_keypresstimer[1]
 970  04C5  0080     E  	mov rc,a
 970  04C6  0700     E  	mov a,rb
 970  04C7  0080     R  	mov _krlsrftxtimer[0],a
 971  04C8              #line 971 "E:\jim\project\A2021\RF392\copy from pc\RF392A003_V01\USER_PROGRAM\USER_PROGRAM.c"
 971  04C8  1F00     R  	clr _keypresstimer[0]
 971  04C9  1F00     R  	clr _keypresstimer[1]
 972  04CA              #line 972 "E:\jim\project\A2021\RF392\copy from pc\RF392A003_V01\USER_PROGRAM\USER_PROGRAM.c"
 972  04CA  3000     R  	set _userflag1[0].2
 973  04CB              #line 973 "E:\jim\project\A2021\RF392\copy from pc\RF392A003_V01\USER_PROGRAM\USER_PROGRAM.c"
 973  04CB  3000     R  	set _userflag2[0].0
 973  04CC              _L142:
 976  04CC              #line 976 "E:\jim\project\A2021\RF392\copy from pc\RF392A003_V01\USER_PROGRAM\USER_PROGRAM.c"
 976  04CC  3800     R  	snz _userflag1[0].2
 976  04CD  2800     R  	jmp _L144
 976  04CE  0F4F        	mov a,79
 976  04CF  0200     R  	sub a,_krlsrftxtimer[0]
 976  04D0  380A        	snz c
 976  04D1  2800     R  	jmp _L144
 978  04D2              #line 978 "E:\jim\project\A2021\RF392\copy from pc\RF392A003_V01\USER_PROGRAM\USER_PROGRAM.c"
 978  04D2  3800     R  	snz _userflag2[0].0
 978  04D3  2800     R  	jmp _L144
 981  04D4              #line 981 "E:\jim\project\A2021\RF392\copy from pc\RF392A003_V01\USER_PROGRAM\USER_PROGRAM.c"
 981  04D4  3400     R  	clr _userflag2[0].0
 982  04D5              #line 982 "E:\jim\project\A2021\RF392\copy from pc\RF392A003_V01\USER_PROGRAM\USER_PROGRAM.c"
 982  04D5  2000     E  	call _It8920_Idle
 983  04D6              #line 983 "E:\jim\project\A2021\RF392\copy from pc\RF392A003_V01\USER_PROGRAM\USER_PROGRAM.c"
 983  04D6  2000     E  	call _It8920_ResetFifo
 984  04D7              #line 984 "E:\jim\project\A2021\RF392\copy from pc\RF392A003_V01\USER_PROGRAM\USER_PROGRAM.c"
 984  04D7  2000     E  	call _It8920_filldata
 985  04D8              #line 985 "E:\jim\project\A2021\RF392\copy from pc\RF392A003_V01\USER_PROGRAM\USER_PROGRAM.c"
 985  04D8  2000     E  	call _SPI_WriteFifo
 986  04D9              #line 986 "E:\jim\project\A2021\RF392\copy from pc\RF392A003_V01\USER_PROGRAM\USER_PROGRAM.c"
 986  04D9  2000     E  	call _It892_EnterTx
 987  04DA              #line 987 "E:\jim\project\A2021\RF392\copy from pc\RF392A003_V01\USER_PROGRAM\USER_PROGRAM.c"
 987  04DA  2000     E  	call _LT8900_txdata
 987  04DB              _L144:
 991  04DB              #line 991 "E:\jim\project\A2021\RF392\copy from pc\RF392A003_V01\USER_PROGRAM\USER_PROGRAM.c"
 991  04DB  0F4F        	mov a,79
 991  04DC  0200     R  	sub a,_krlsrftxtimer[0]
 991  04DD  3C0A        	sz c
 991  04DE  2800     R  	jmp _L145
 993  04DF              #line 993 "E:\jim\project\A2021\RF392\copy from pc\RF392A003_V01\USER_PROGRAM\USER_PROGRAM.c"
 993  04DF  3400     R  	clr _userflag1[0].2
 994  04E0              #line 994 "E:\jim\project\A2021\RF392\copy from pc\RF392A003_V01\USER_PROGRAM\USER_PROGRAM.c"
 994  04E0  1F00     R  	clr _krlsrftxtimer[0]
 995  04E1              #line 995 "E:\jim\project\A2021\RF392\copy from pc\RF392A003_V01\USER_PROGRAM\USER_PROGRAM.c"
 995  04E1  3400     R  	clr _userflag2[0].0
 995  04E2              _L145:
 998  04E2              #line 998 "E:\jim\project\A2021\RF392\copy from pc\RF392A003_V01\USER_PROGRAM\USER_PROGRAM.c"
 998  04E2  3C00     R  	sz _userflag3[0].3
 998  04E3  2800     R  	jmp _L146
 998  04E4  3800     R  	snz _userflag3[0].6
 998  04E5  2800     R  	jmp _L146
文件：USER_PROGRAM.c 编译器版本 HGASM 0202 页次39

1000  04E6              #line 1000 "E:\jim\project\A2021\RF392\copy from pc\RF392A003_V01\USER_PROGRAM\USER_PROGRAM.c"
1000  04E6  3000     R  	set _userflag2[0].7
1001  04E7              #line 1001 "E:\jim\project\A2021\RF392\copy from pc\RF392A003_V01\USER_PROGRAM\USER_PROGRAM.c"
1001  04E7  3000     R  	set _userflag1[0].6
1002  04E8              #line 1002 "E:\jim\project\A2021\RF392\copy from pc\RF392A003_V01\USER_PROGRAM\USER_PROGRAM.c"
1002  04E8  3400     R  	clr _userflag3[0].6
1003  04E9              #line 1003 "E:\jim\project\A2021\RF392\copy from pc\RF392A003_V01\USER_PROGRAM\USER_PROGRAM.c"
1003  04E9  340E        	clr [14].0
1004  04EA              #line 1004 "E:\jim\project\A2021\RF392\copy from pc\RF392A003_V01\USER_PROGRAM\USER_PROGRAM.c"
1004  04EA  1F00     R  	clr _keyonlyrlstxtimer[0]
1005  04EB              #line 1005 "E:\jim\project\A2021\RF392\copy from pc\RF392A003_V01\USER_PROGRAM\USER_PROGRAM.c"
1005  04EB  0F11        	mov a,17
1005  04EC  0200     E  	sub a,_STANDBY_TIME[0]
1005  04ED  380A        	snz c
1005  04EE  2800     R  	jmp _L147
1007  04EF              #line 1007 "E:\jim\project\A2021\RF392\copy from pc\RF392A003_V01\USER_PROGRAM\USER_PROGRAM.c"
1007  04EF  0F12        	mov a,18
1007  04F0  0080     E  	mov _STANDBY_TIME[0],a
1007  04F1              _L147:
1009  04F1              #line 1009 "E:\jim\project\A2021\RF392\copy from pc\RF392A003_V01\USER_PROGRAM\USER_PROGRAM.c"
1009  04F1  300E        	set [14].0
1009  04F2              _L146:
1014  04F2              #line 1014 "E:\jim\project\A2021\RF392\copy from pc\RF392A003_V01\USER_PROGRAM\USER_PROGRAM.c"
1014  04F2  3C00     R  	sz _userflag1[0].4
1014  04F3  2800     R  	jmp _L148
1014  04F4  3C00     R  	sz _userflag2[0].3
1014  04F5  2800     R  	jmp _L148
1014  04F6  3C00     R  	sz _userflag2[0].4
1014  04F7  2800     R  	jmp _L148
1014  04F8  3C00     R  	sz _userflag2[0].5
1014  04F9  2800     R  	jmp _L148
1016  04FA              #line 1016 "E:\jim\project\A2021\RF392\copy from pc\RF392A003_V01\USER_PROGRAM\USER_PROGRAM.c"
1016  04FA  3C00     R  	sz _userflag3[0].2
1016  04FB  2800     R  	jmp _L148
1016  04FC  3C00     R  	sz _userflag2[0].6
1016  04FD  2800     R  	jmp _L148
1016  04FE  3800     R  	snz _userflag3[0].1
1016  04FF  2800     R  	jmp _L149
1016  0500              _L148:
1018  0500              #line 1018 "E:\jim\project\A2021\RF392\copy from pc\RF392A003_V01\USER_PROGRAM\USER_PROGRAM.c"
1018  0500  3400     R  	clr _userflag3[0].6
1020  0501              #line 1020 "E:\jim\project\A2021\RF392\copy from pc\RF392A003_V01\USER_PROGRAM\USER_PROGRAM.c"
1020  0501  3400     R  	clr _userflag2[0].3
1021  0502              #line 1021 "E:\jim\project\A2021\RF392\copy from pc\RF392A003_V01\USER_PROGRAM\USER_PROGRAM.c"
1021  0502  3400     R  	clr _userflag2[0].4
1022  0503              #line 1022 "E:\jim\project\A2021\RF392\copy from pc\RF392A003_V01\USER_PROGRAM\USER_PROGRAM.c"
1022  0503  3400     R  	clr _userflag2[0].5
1023  0504              #line 1023 "E:\jim\project\A2021\RF392\copy from pc\RF392A003_V01\USER_PROGRAM\USER_PROGRAM.c"
1023  0504  3400     R  	clr _userflag3[0].2
1024  0505              #line 1024 "E:\jim\project\A2021\RF392\copy from pc\RF392A003_V01\USER_PROGRAM\USER_PROGRAM.c"
1024  0505  3400     R  	clr _userflag2[0].6
1025  0506              #line 1025 "E:\jim\project\A2021\RF392\copy from pc\RF392A003_V01\USER_PROGRAM\USER_PROGRAM.c"
1025  0506  3400     R  	clr _userflag3[0].1
1027  0507              #line 1027 "E:\jim\project\A2021\RF392\copy from pc\RF392A003_V01\USER_PROGRAM\USER_PROGRAM.c"
1027  0507  3000     R  	set _userflag2[0].7
1028  0508              #line 1028 "E:\jim\project\A2021\RF392\copy from pc\RF392A003_V01\USER_PROGRAM\USER_PROGRAM.c"
1028  0508  3000     R  	set _userflag1[0].6
1029  0509              #line 1029 "E:\jim\project\A2021\RF392\copy from pc\RF392A003_V01\USER_PROGRAM\USER_PROGRAM.c"
1029  0509  340E        	clr [14].0
1031  050A              #line 1031 "E:\jim\project\A2021\RF392\copy from pc\RF392A003_V01\USER_PROGRAM\USER_PROGRAM.c"
文件：USER_PROGRAM.c 编译器版本 HGASM 0202 页次40

1031  050A  0700     R  	mov a,_keypresstimer[0]
1031  050B  0080     E  	mov rb,a
1031  050C  0700     R  	mov a,_keypresstimer[1]
1031  050D  0080     E  	mov rc,a
1031  050E  0700     E  	mov a,rb
1031  050F  0080     R  	mov _keyonlyrlstxtimer[0],a
1042  0510              #line 1042 "E:\jim\project\A2021\RF392\copy from pc\RF392A003_V01\USER_PROGRAM\USER_PROGRAM.c"
1042  0510  3400     R  	clr _userflag1[0].4
1044  0511              #line 1044 "E:\jim\project\A2021\RF392\copy from pc\RF392A003_V01\USER_PROGRAM\USER_PROGRAM.c"
1044  0511  0F11        	mov a,17
1044  0512  0200     E  	sub a,_STANDBY_TIME[0]
1044  0513  380A        	snz c
1044  0514  2800     R  	jmp _L150
1046  0515              #line 1046 "E:\jim\project\A2021\RF392\copy from pc\RF392A003_V01\USER_PROGRAM\USER_PROGRAM.c"
1046  0515  0F12        	mov a,18
1046  0516  0080     E  	mov _STANDBY_TIME[0],a
1046  0517              _L150:
1048  0517              #line 1048 "E:\jim\project\A2021\RF392\copy from pc\RF392A003_V01\USER_PROGRAM\USER_PROGRAM.c"
1048  0517  300E        	set [14].0
1048  0518              _L149:
1070  0518              #line 1070 "E:\jim\project\A2021\RF392\copy from pc\RF392A003_V01\USER_PROGRAM\USER_PROGRAM.c"
1070  0518  3800     R  	snz _userflag1[0].6
1070  0519  2800     R  	jmp _L151
1070  051A  0700     R  	mov a,_keyonlyrlstxtimer[0]
1070  051B  0080     E  	mov ra,a
1070  051C              _L151:
1074  051C              #line 1074 "E:\jim\project\A2021\RF392\copy from pc\RF392A003_V01\USER_PROGRAM\USER_PROGRAM.c"
1074  051C  0F4F        	mov a,79
1074  051D  0200     R  	sub a,_keyonlyrlstxtimer[0]
1074  051E  3C0A        	sz c
1074  051F  2800     R  	jmp _L60
1076  0520              #line 1076 "E:\jim\project\A2021\RF392\copy from pc\RF392A003_V01\USER_PROGRAM\USER_PROGRAM.c"
1076  0520  3400     R  	clr _userflag1[0].6
1077  0521              #line 1077 "E:\jim\project\A2021\RF392\copy from pc\RF392A003_V01\USER_PROGRAM\USER_PROGRAM.c"
1077  0521  340E        	clr [14].0
1078  0522              #line 1078 "E:\jim\project\A2021\RF392\copy from pc\RF392A003_V01\USER_PROGRAM\USER_PROGRAM.c"
1078  0522  1F00     R  	clr _keyonlyrlstxtimer[0]
1080  0523              #line 1080 "E:\jim\project\A2021\RF392\copy from pc\RF392A003_V01\USER_PROGRAM\USER_PROGRAM.c"
1080  0523  3400     R  	clr _userflag4[0].5
1081  0524              #line 1081 "E:\jim\project\A2021\RF392\copy from pc\RF392A003_V01\USER_PROGRAM\USER_PROGRAM.c"
1081  0524  3400     R  	clr _userflag4[0].6
1082  0525              #line 1082 "E:\jim\project\A2021\RF392\copy from pc\RF392A003_V01\USER_PROGRAM\USER_PROGRAM.c"
1082  0525  1F00     R  	clr _keyonlyhuanqitimer[0]
1083  0526              #line 1083 "E:\jim\project\A2021\RF392\copy from pc\RF392A003_V01\USER_PROGRAM\USER_PROGRAM.c"
1083  0526  300E        	set [14].0
1084  0527              #line 1084 "E:\jim\project\A2021\RF392\copy from pc\RF392A003_V01\USER_PROGRAM\USER_PROGRAM.c"
1084  0527  3400     R  	clr _userflag2[0].7
1085  0528              #line 1085 "E:\jim\project\A2021\RF392\copy from pc\RF392A003_V01\USER_PROGRAM\USER_PROGRAM.c"
1085  0528  0F03        	mov a,3
1085  0529  0200     E  	sub a,_STANDBY_TIME[0]
1085  052A  3C0A        	sz c
1085  052B  2800     R  	jmp _L60
1087  052C              #line 1087 "E:\jim\project\A2021\RF392\copy from pc\RF392A003_V01\USER_PROGRAM\USER_PROGRAM.c"
1087  052C  340E        	clr [14].0
1088  052D              #line 1088 "E:\jim\project\A2021\RF392\copy from pc\RF392A003_V01\USER_PROGRAM\USER_PROGRAM.c"
1088  052D  0F02        	mov a,2
1088  052E  0080     E  	mov _STANDBY_TIME[0],a
1089  052F              #line 1089 "E:\jim\project\A2021\RF392\copy from pc\RF392A003_V01\USER_PROGRAM\USER_PROGRAM.c"
1089  052F  300E        	set [14].0
1089  0530              _L60:
文件：USER_PROGRAM.c 编译器版本 HGASM 0202 页次41

1098  0530              #line 1098 "E:\jim\project\A2021\RF392\copy from pc\RF392A003_V01\USER_PROGRAM\USER_PROGRAM.c"
1098  0530  3C00     R  	sz _userflag4[0].2
1098  0531  2800     R  	jmp _L152
1098  0532  0F0A        	mov a,10
1098  0533  0200     R  	sub a,_keyledtimer[0]
1098  0534  0F00        	mov a,0
1098  0535  1200     R  	sbc a,_keyledtimer[1]
1098  0536  3C0A        	sz c
1098  0537  2800     R  	jmp _L152
1104  0538              #line 1104 "E:\jim\project\A2021\RF392\copy from pc\RF392A003_V01\USER_PROGRAM\USER_PROGRAM.c"
1104  0538  2000     E  	call _LT8900_Reset
1105  0539              #line 1105 "E:\jim\project\A2021\RF392\copy from pc\RF392A003_V01\USER_PROGRAM\USER_PROGRAM.c"
1105  0539  2000     E  	call _LT8900Reg_Init
1106  053A              #line 1106 "E:\jim\project\A2021\RF392\copy from pc\RF392A003_V01\USER_PROGRAM\USER_PROGRAM.c"
1106  053A  2000     E  	call _It8920_Idle
1107  053B              #line 1107 "E:\jim\project\A2021\RF392\copy from pc\RF392A003_V01\USER_PROGRAM\USER_PROGRAM.c"
1107  053B  340E        	clr [14].0
1108  053C              #line 1108 "E:\jim\project\A2021\RF392\copy from pc\RF392A003_V01\USER_PROGRAM\USER_PROGRAM.c"
1108  053C  0F02        	mov a,2
1108  053D  0080     E  	mov _STANDBY_TIME[0],a
1109  053E              #line 1109 "E:\jim\project\A2021\RF392\copy from pc\RF392A003_V01\USER_PROGRAM\USER_PROGRAM.c"
1109  053E  1F00     R  	clr _keyledtimer[0]
1109  053F  1F00     R  	clr _keyledtimer[1]
1110  0540              #line 1110 "E:\jim\project\A2021\RF392\copy from pc\RF392A003_V01\USER_PROGRAM\USER_PROGRAM.c"
1110  0540  300E        	set [14].0
1110  0541              _L152:
1114  0541              #line 1114 "E:\jim\project\A2021\RF392\copy from pc\RF392A003_V01\USER_PROGRAM\USER_PROGRAM.c"
1114  0541  3800     R  	snz _userflag2[0].7
1114  0542  2800     R  	jmp _L53
1117  0543              #line 1117 "E:\jim\project\A2021\RF392\copy from pc\RF392A003_V01\USER_PROGRAM\USER_PROGRAM.c"
1117  0543  3400     R  	clr _userflag2[0].7
1118  0544              #line 1118 "E:\jim\project\A2021\RF392\copy from pc\RF392A003_V01\USER_PROGRAM\USER_PROGRAM.c"
1118  0544  2000     E  	call _It8920_Idle
1119  0545              #line 1119 "E:\jim\project\A2021\RF392\copy from pc\RF392A003_V01\USER_PROGRAM\USER_PROGRAM.c"
1119  0545  2000     E  	call _It8920_ResetFifo
1120  0546              #line 1120 "E:\jim\project\A2021\RF392\copy from pc\RF392A003_V01\USER_PROGRAM\USER_PROGRAM.c"
1120  0546  2000     E  	call _It8920_filldata
1121  0547              #line 1121 "E:\jim\project\A2021\RF392\copy from pc\RF392A003_V01\USER_PROGRAM\USER_PROGRAM.c"
1121  0547  2000     E  	call _SPI_WriteFifo
1122  0548              #line 1122 "E:\jim\project\A2021\RF392\copy from pc\RF392A003_V01\USER_PROGRAM\USER_PROGRAM.c"
1122  0548  2000     E  	call _It892_EnterTx
1123  0549              #line 1123 "E:\jim\project\A2021\RF392\copy from pc\RF392A003_V01\USER_PROGRAM\USER_PROGRAM.c"
1123  0549  2000     E  	call _LT8900_txdata
1123  054A              _L53:
1123  054A  0003        	ret
1123  054B              _USER_PROGRAM endp
1123  054B              #line 1123 "E:\jim\project\A2021\RF392\copy from pc\RF392A003_V01\USER_PROGRAM\USER_PROGRAM.c"
1123  054B              #pragma debug scope 1 1
1123  054B              public _keyledidicatetimer
1123  0000              @HCCINIT	.section 'data'
 191  0000              #line 191 "E:\jim\project\A2021\RF392\copy from pc\RF392A003_V01\USER_PROGRAM\USER_PROGRAM.c"
 191  0000              @HCCINIT .section 'data'
 191  0000              _keyledidicatetimer label byte
 191  0000              #pragma debug variable 12 1 _keyledidicatetimer "keyledidicatetimer"
 191  0000              	db 0
 191  0000              @ROMDATA_BASE .section inpage 'code'
 191  0000              	db 0
 191  0001              @HCCINIT .section 'data'
 191  0001              	db 0
 191  0001              @ROMDATA_BASE .section inpage 'code'
文件：USER_PROGRAM.c 编译器版本 HGASM 0202 页次42

 191  0001              	db 0
 191  0002              @HCCINIT .section 'data'
 191  0002              public _keymachtimer
 189  0002              #line 189 "E:\jim\project\A2021\RF392\copy from pc\RF392A003_V01\USER_PROGRAM\USER_PROGRAM.c"
 189  0002              @HCCINIT .section 'data'
 189  0002              _keymachtimer label byte
 189  0002              #pragma debug variable 12 1 _keymachtimer "keymachtimer"
 189  0002              	db 0
 189  0001              @ROMDATA_BASE .section inpage 'code'
 189  0001              	db 0
 189  0003              @HCCINIT .section 'data'
 189  0003              	db 0
 189  0002              @ROMDATA_BASE .section inpage 'code'
 189  0002              	db 0
 189  0004              @HCCINIT .section 'data'
 189  0004              public _keysamerepeatflag
 188  0004              #line 188 "E:\jim\project\A2021\RF392\copy from pc\RF392A003_V01\USER_PROGRAM\USER_PROGRAM.c"
 188  0004              @HCCINIT .section 'data'
 188  0004              _keysamerepeatflag label byte
 188  0004              #pragma debug variable 8 1 _keysamerepeatflag "keysamerepeatflag"
 188  0004              	db 1
 188  0002              @ROMDATA_BASE .section inpage 'code'
 188  0002              	db 1
 188  0005              @HCCINIT .section 'data'
 188  0005              public _keysamecounter
 187  0005              #line 187 "E:\jim\project\A2021\RF392\copy from pc\RF392A003_V01\USER_PROGRAM\USER_PROGRAM.c"
 187  0005              @HCCINIT .section 'data'
 187  0005              _keysamecounter label byte
 187  0005              #pragma debug variable 8 1 _keysamecounter "keysamecounter"
 187  0005              	db 0
 187  0003              @ROMDATA_BASE .section inpage 'code'
 187  0003              	db 0
 187  0006              @HCCINIT .section 'data'
 173  0006              #line 173 "E:\jim\project\A2021\RF392\copy from pc\RF392A003_V01\USER_PROGRAM\USER_PROGRAM.c"
 173  0006              public _userflag5
 173  0000              @HCCINIT0 .section 'data'
 173  0000              _userflag5	db 0
 173  0001              #pragma debug struct_end
 173  0001              #pragma debug struct_end
 173  0001              #pragma debug union_end
 173  0001              #pragma debug union_end
 173  0001              #pragma debug variable 43 1 _userflag5 "userflag5"
 173  0001              
 173  0006              @HCCINIT .section 'data'
 163  0006              #line 163 "E:\jim\project\A2021\RF392\copy from pc\RF392A003_V01\USER_PROGRAM\USER_PROGRAM.c"
 163  0006              public _userflag4
 163  0001              @HCCINIT0 .section 'data'
 163  0001              _userflag4	db 0
 163  0002              #pragma debug variable 43 1 _userflag4 "userflag4"
 163  0002              
 163  0006              @HCCINIT .section 'data'
 154  0006              #line 154 "E:\jim\project\A2021\RF392\copy from pc\RF392A003_V01\USER_PROGRAM\USER_PROGRAM.c"
 154  0006              public _userflag3
 154  0002              @HCCINIT0 .section 'data'
 154  0002              _userflag3	db 0
 154  0003              #pragma debug variable 43 1 _userflag3 "userflag3"
 154  0003              
 154  0006              @HCCINIT .section 'data'
 143  0006              #line 143 "E:\jim\project\A2021\RF392\copy from pc\RF392A003_V01\USER_PROGRAM\USER_PROGRAM.c"
 143  0006              public _userflag2
文件：USER_PROGRAM.c 编译器版本 HGASM 0202 页次43

 143  0003              @HCCINIT0 .section 'data'
 143  0003              _userflag2	db 0
 143  0004              #pragma debug variable 43 1 _userflag2 "userflag2"
 143  0004              
 143  0006              @HCCINIT .section 'data'
 133  0006              #line 133 "E:\jim\project\A2021\RF392\copy from pc\RF392A003_V01\USER_PROGRAM\USER_PROGRAM.c"
 133  0006              public _userflag1
 133  0004              @HCCINIT0 .section 'data'
 133  0004              _userflag1	db 0
 133  0005              #pragma debug variable 43 1 _userflag1 "userflag1"
 133  0005              
 133  0006              @HCCINIT .section 'data'
 133  0006              public _krlsrftxtimer
 130  0006              #line 130 "E:\jim\project\A2021\RF392\copy from pc\RF392A003_V01\USER_PROGRAM\USER_PROGRAM.c"
 130  0006              @HCCINIT .section 'data'
 130  0006              _krlsrftxtimer label byte
 130  0006              #pragma debug variable 8 1 _krlsrftxtimer "krlsrftxtimer"
 130  0006              	db 0
 130  0003              @ROMDATA_BASE .section inpage 'code'
 130  0003              	db 0
 130  0007              @HCCINIT .section 'data'
 130  0007              public _usertmpvalue
 129  0007              #line 129 "E:\jim\project\A2021\RF392\copy from pc\RF392A003_V01\USER_PROGRAM\USER_PROGRAM.c"
 129  0007              @HCCINIT .section 'data'
 129  0007              _usertmpvalue label byte
 129  0007              #pragma debug variable 8 1 _usertmpvalue "usertmpvalue"
 129  0007              	db 0
 129  0004              @ROMDATA_BASE .section inpage 'code'
 129  0004              	db 0
 129  0008              @HCCINIT .section 'data'
 129  0008              public _keyonlyhuanqitimer
 126  0008              #line 126 "E:\jim\project\A2021\RF392\copy from pc\RF392A003_V01\USER_PROGRAM\USER_PROGRAM.c"
 126  0008              @HCCINIT .section 'data'
 126  0008              _keyonlyhuanqitimer label byte
 126  0008              #pragma debug variable 8 1 _keyonlyhuanqitimer "keyonlyhuanqitimer"
 126  0008              	db 0
 126  0004              @ROMDATA_BASE .section inpage 'code'
 126  0004              	db 0
 126  0009              @HCCINIT .section 'data'
 126  0009              public _keyonlyrlstxtimer
 124  0009              #line 124 "E:\jim\project\A2021\RF392\copy from pc\RF392A003_V01\USER_PROGRAM\USER_PROGRAM.c"
 124  0009              @HCCINIT .section 'data'
 124  0009              _keyonlyrlstxtimer label byte
 124  0009              #pragma debug variable 8 1 _keyonlyrlstxtimer "keyonlyrlstxtimer"
 124  0009              	db 0
 124  0005              @ROMDATA_BASE .section inpage 'code'
 124  0005              	db 0
 124  000A              @HCCINIT .section 'data'
 124  000A              public _K7paircounter
 123  000A              #line 123 "E:\jim\project\A2021\RF392\copy from pc\RF392A003_V01\USER_PROGRAM\USER_PROGRAM.c"
 123  000A              @HCCINIT .section 'data'
 123  000A              _K7paircounter label byte
 123  000A              #pragma debug variable 8 1 _K7paircounter "K7paircounter"
 123  000A              	db 0
 123  0005              @ROMDATA_BASE .section inpage 'code'
 123  0005              	db 0
 123  000B              @HCCINIT .section 'data'
 123  000B              public _keypresstimer
 121  000B              #line 121 "E:\jim\project\A2021\RF392\copy from pc\RF392A003_V01\USER_PROGRAM\USER_PROGRAM.c"
 121  000B              @HCCINIT .section 'data'
文件：USER_PROGRAM.c 编译器版本 HGASM 0202 页次44

 121  000B              _keypresstimer label byte
 121  000B              #pragma debug variable 12 1 _keypresstimer "keypresstimer"
 121  000B              	db 0
 121  0006              @ROMDATA_BASE .section inpage 'code'
 121  0006              	db 0
 121  000C              @HCCINIT .section 'data'
 121  000C              	db 0
 121  0006              @ROMDATA_BASE .section inpage 'code'
 121  0006              	db 0
 121  000D              @HCCINIT .section 'data'
 121  000D              public _keypairtimer
 120  000D              #line 120 "E:\jim\project\A2021\RF392\copy from pc\RF392A003_V01\USER_PROGRAM\USER_PROGRAM.c"
 120  000D              @HCCINIT .section 'data'
 120  000D              _keypairtimer label byte
 120  000D              #pragma debug variable 12 1 _keypairtimer "keypairtimer"
 120  000D              	db 0
 120  0007              @ROMDATA_BASE .section inpage 'code'
 120  0007              	db 0
 120  000E              @HCCINIT .section 'data'
 120  000E              	db 0
 120  0007              @ROMDATA_BASE .section inpage 'code'
 120  0007              	db 0
 120  000F              @HCCINIT .section 'data'
 120  000F              public _keyledtimer
 119  000F              #line 119 "E:\jim\project\A2021\RF392\copy from pc\RF392A003_V01\USER_PROGRAM\USER_PROGRAM.c"
 119  000F              @HCCINIT .section 'data'
 119  000F              _keyledtimer label byte
 119  000F              #pragma debug variable 12 1 _keyledtimer "keyledtimer"
 119  000F              	db 0
 119  0008              @ROMDATA_BASE .section inpage 'code'
 119  0008              	db 0
 119  0010              @HCCINIT .section 'data'
 119  0010              	db 0
 119  0008              @ROMDATA_BASE .section inpage 'code'
 119  0008              	db 0
 119  0011              @HCCINIT .section 'data'
 119  0011              public _keycount
 118  0011              #line 118 "E:\jim\project\A2021\RF392\copy from pc\RF392A003_V01\USER_PROGRAM\USER_PROGRAM.c"
 118  0011              @HCCINIT .section 'data'
 118  0011              _keycount label byte
 118  0011              #pragma debug variable 8 1 _keycount "keycount"
 118  0011              	db 0
 118  0009              @ROMDATA_BASE .section inpage 'code'
 118  0009              	db 0
 118  0012              @HCCINIT .section 'data'
 118  0012              public _keytempvalue
 117  0012              #line 117 "E:\jim\project\A2021\RF392\copy from pc\RF392A003_V01\USER_PROGRAM\USER_PROGRAM.c"
 117  0012              @HCCINIT .section 'data'
 117  0012              _keytempvalue label byte
 117  0012              #pragma debug variable 8 1 _keytempvalue "keytempvalue"
 117  0012              	db 0
 117  0009              @ROMDATA_BASE .section inpage 'code'
 117  0009              	db 0
 117  0013              @HCCINIT .section 'data'
 117  0013              public _pkeyvalue
 116  0013              #line 116 "E:\jim\project\A2021\RF392\copy from pc\RF392A003_V01\USER_PROGRAM\USER_PROGRAM.c"
 116  0013              @HCCINIT .section 'data'
 116  0013              _pkeyvalue label byte
 116  0013              #pragma debug variable 8 1 _pkeyvalue "pkeyvalue"
 116  0013              	db 0
文件：USER_PROGRAM.c 编译器版本 HGASM 0202 页次45

 116  000A              @ROMDATA_BASE .section inpage 'code'
 116  000A              	db 0
 116  0014              @HCCINIT .section 'data'
 116  0014              public _keyvalue
 115  0014              #line 115 "E:\jim\project\A2021\RF392\copy from pc\RF392A003_V01\USER_PROGRAM\USER_PROGRAM.c"
 115  0014              @HCCINIT .section 'data'
 115  0014              _keyvalue label byte
 115  0014              #pragma debug variable 8 1 _keyvalue "keyvalue"
 115  0014              	db 0
 115  000A              @ROMDATA_BASE .section inpage 'code'
 115  000A              	db 0
 115  0015              @HCCINIT .section 'data'
 115  0015              #pragma debug struct_end
 115  0015              #pragma debug struct_end
 115  0015              #pragma debug union_end
 115  0015              #pragma debug union_end
 115  0015              #pragma debug variable 45 1 ___intc0 "__intc0" 1
 115  0015              #pragma debug struct_end
 115  0015              #pragma debug struct_end
 115  0015              #pragma debug union_end
 115  0015              #pragma debug union_end
 115  0015              #pragma debug variable 47 1 ___intc2 "__intc2" 1
 115  0015              #pragma debug struct_end
 115  0015              #pragma debug struct_end
 115  0015              #pragma debug union_end
 115  0015              #pragma debug union_end
 115  0015              #pragma debug variable 49 1 ___pa "__pa" 1
 115  0015              #pragma debug struct_end
 115  0015              #pragma debug struct_end
 115  0015              #pragma debug union_end
 115  0015              #pragma debug union_end
 115  0015              #pragma debug variable 51 1 ___pac "__pac" 1
 115  0015              #pragma debug struct_end
 115  0015              #pragma debug struct_end
 115  0015              #pragma debug union_end
 115  0015              #pragma debug union_end
 115  0015              #pragma debug variable 53 1 ___papu "__papu" 1
 115  0015              #pragma debug struct_end
 115  0015              #pragma debug struct_end
 115  0015              #pragma debug union_end
 115  0015              #pragma debug union_end
 115  0015              #pragma debug variable 55 1 ___mfi1 "__mfi1" 1
 115  0015              #pragma debug struct_end
 115  0015              #pragma debug struct_end
 115  0015              #pragma debug union_end
 115  0015              #pragma debug union_end
 115  0015              #pragma debug variable 57 1 ___pb "__pb" 1
 115  0015              #pragma debug struct_end
 115  0015              #pragma debug struct_end
 115  0015              #pragma debug union_end
 115  0015              #pragma debug union_end
 115  0015              #pragma debug variable 59 1 ___pbc "__pbc" 1
 115  0015              #pragma debug struct_end
 115  0015              #pragma debug struct_end
 115  0015              #pragma debug union_end
 115  0015              #pragma debug union_end
 115  0015              #pragma debug variable 61 1 ___pbpu "__pbpu" 1
 115  0015              #pragma debug struct_end
 115  0015              #pragma debug struct_end
 115  0015              #pragma debug union_end
文件：USER_PROGRAM.c 编译器版本 HGASM 0202 页次46

 115  0015              #pragma debug union_end
 115  0015              #pragma debug variable 63 1 ___ctmc0 "__ctmc0" 1
 115  0015              #pragma debug struct_end
 115  0015              #pragma debug struct_end
 115  0015              #pragma debug union_end
 115  0015              #pragma debug union_end
 115  0015              #pragma debug variable 65 1 ___ctmc1 "__ctmc1" 1
 115  0015              #pragma debug variable 8 1 ___ctmal "__ctmal" 1
 115  0015              #pragma debug variable 8 1 ___ctmah "__ctmah" 1
 115  0015              #pragma debug struct_end
 115  0015              #pragma debug struct_end
 115  0015              #pragma debug union_end
 115  0015              #pragma debug union_end
 115  0015              #pragma debug variable 67 1 ___acerl "__acerl" 1
 115  0015              #pragma debug struct_end
 115  0015              #pragma debug struct_end
 115  0015              #pragma debug union_end
 115  0015              #pragma debug union_end
 115  0015              #pragma debug variable 69 1 ___pd "__pd" 1
 115  0015              #pragma debug struct_end
 115  0015              #pragma debug struct_end
 115  0015              #pragma debug union_end
 115  0015              #pragma debug union_end
 115  0015              #pragma debug variable 71 1 ___pdc "__pdc" 1
 115  0015              #pragma debug struct_end
 115  0015              #pragma debug struct_end
 115  0015              #pragma debug union_end
 115  0015              #pragma debug union_end
 115  0015              #pragma debug variable 73 1 ___pdpu "__pdpu" 1
 115  0015              #pragma debug struct_end
 115  0015              #pragma debug struct_end
 115  0015              #pragma debug union_end
 115  0015              #pragma debug union_end
 115  0015              #pragma debug variable 75 1 ___pc "__pc" 1
 115  0015              #pragma debug struct_end
 115  0015              #pragma debug struct_end
 115  0015              #pragma debug union_end
 115  0015              #pragma debug union_end
 115  0015              #pragma debug variable 77 1 ___pcc "__pcc" 1
 115  0015              #pragma debug struct_end
 115  0015              #pragma debug struct_end
 115  0015              #pragma debug union_end
 115  0015              #pragma debug union_end
 115  0015              #pragma debug variable 79 1 ___pcpu "__pcpu" 1
 115  0015              #pragma debug variable 8 1 _tempcount "tempcount" 1
 115  0015              
 115  0015              ; output external variables
 115  0015              extern _rfmsgarry:byte
 115  0015              extern _ittranscounter:byte
 115  0015              extern _DATA_BUF:byte
 115  0015              extern _TKS_FLAGA:byte
 115  0015              extern _STANDBY_TIME:byte
 115  0015              extern _itcounter:byte
 115  0015              extern r1:byte
 115  0015              extern r2:byte
 115  0015              extern _builtin_holtek_udivmodqi4_2:byte
 115  0015              extern _builtin_holtek_udivmodqi4:near
 115  0015              extern _LT8900_Reset:near
 115  0015              extern _LT8900Reg_Init:near
 115  0015              extern _LT8900rf_test:near
文件：USER_PROGRAM.c 编译器版本 HGASM 0202 页次47

 115  0015              extern _It8920_Idle:near
 115  0015              extern _It8920_Sleep:near
 115  0015              extern _GET_KEY_BITMAP:near
 115  0015              extern _It8920_ResetFifo:near
 115  0015              extern _It8920_filldata:near
 115  0015              extern _SPI_WriteFifo:near
 115  0015              extern _It892_EnterTx:near
 115  0015              extern _LT8900_txdata:near
 115  0015              
 115  0015              ; 
 115  0015              ; Generated by holtek-gcc v3.19, Wed Jan 27 13:56:23 2021
 115  0015              ; Rebuild 718
 115  0015              ; end of file


        0 Errors, 0